	.arch armv8-a
	.text
	.align	2
	.globl __ZSt21is_constant_evaluatedv
	.weak_definition __ZSt21is_constant_evaluatedv
__ZSt21is_constant_evaluatedv:
LFB301:
	mov	w0, 0
	ret
LFE301:
	.align	2
	.globl __ZnwmPv
	.weak_definition __ZnwmPv
__ZnwmPv:
LFB464:
	sub	sp, sp, #16
LCFI0:
	str	x0, [sp, 8]
	str	x1, [sp]
	ldr	x0, [sp]
	add	sp, sp, 16
LCFI1:
	ret
LFE464:
	.align	2
	.globl __ZdlPvS_
	.weak_definition __ZdlPvS_
__ZdlPvS_:
LFB466:
	sub	sp, sp, #16
LCFI2:
	str	x0, [sp, 8]
	str	x1, [sp]
	nop
	add	sp, sp, 16
LCFI3:
	ret
LFE466:
	.align	2
	.globl __ZSt17__size_to_integerm
	.weak_definition __ZSt17__size_to_integerm
__ZSt17__size_to_integerm:
LFB734:
	sub	sp, sp, #16
LCFI4:
	str	x0, [sp, 8]
	ldr	x0, [sp, 8]
	add	sp, sp, 16
LCFI5:
	ret
LFE734:
	.align	2
	.globl __ZNSt11char_traitsIcE6assignERcRKc
	.weak_definition __ZNSt11char_traitsIcE6assignERcRKc
__ZNSt11char_traitsIcE6assignERcRKc:
LFB1273:
	sub	sp, sp, #16
LCFI6:
	str	x0, [sp, 8]
	str	x1, [sp]
	ldr	x0, [sp]
	ldrsb	w1, [x0]
	ldr	x0, [sp, 8]
	strb	w1, [x0]
	nop
	add	sp, sp, 16
LCFI7:
	ret
LFE1273:
	.align	2
	.globl __ZSt3minImERKT_S2_S2_
	.weak_definition __ZSt3minImERKT_S2_S2_
__ZSt3minImERKT_S2_S2_:
LFB3905:
	sub	sp, sp, #16
LCFI8:
	str	x0, [sp, 8]
	str	x1, [sp]
	ldr	x0, [sp]
	ldr	x1, [x0]
	ldr	x0, [sp, 8]
	ldr	x0, [x0]
	cmp	x1, x0
	bcs	L10
	ldr	x0, [sp]
	b	L11
L10:
	ldr	x0, [sp, 8]
L11:
	add	sp, sp, 16
LCFI9:
	ret
LFE3905:
	.const
__ZN6__pstl9execution2v1L3seqE:
	.space 1
__ZN6__pstl9execution2v1L3parE:
	.space 1
__ZN6__pstl9execution2v1L9par_unseqE:
	.space 1
__ZN6__pstl9execution2v1L5unseqE:
	.space 1
	.zerofill __DATA,__bss,__ZStL8__ioinit,1,0
	.const
	.align	2
__ZN9__gnu_cxxL21__default_lock_policyE:
	.word	2
	.align	3
__ZNSt8__detailL25__platform_wait_alignmentE:
	.xword	8
	.align	2
__ZNSt8__detailL21__atomic_spin_count_1E:
	.word	12
	.align	2
__ZNSt8__detailL21__atomic_spin_count_2E:
	.word	4
	.align	2
__ZNSt15regex_constantsL13error_collateE:
	.space 4
	.align	2
__ZNSt15regex_constantsL11error_ctypeE:
	.word	1
	.align	2
__ZNSt15regex_constantsL12error_escapeE:
	.word	2
	.align	2
__ZNSt15regex_constantsL13error_backrefE:
	.word	3
	.align	2
__ZNSt15regex_constantsL11error_brackE:
	.word	4
	.align	2
__ZNSt15regex_constantsL11error_parenE:
	.word	5
	.align	2
__ZNSt15regex_constantsL11error_braceE:
	.word	6
	.align	2
__ZNSt15regex_constantsL14error_badbraceE:
	.word	7
	.align	2
__ZNSt15regex_constantsL11error_rangeE:
	.word	8
	.align	2
__ZNSt15regex_constantsL11error_spaceE:
	.word	9
	.align	2
__ZNSt15regex_constantsL15error_badrepeatE:
	.word	10
	.align	2
__ZNSt15regex_constantsL16error_complexityE:
	.word	11
	.align	2
__ZNSt15regex_constantsL11error_stackE:
	.word	12
	.align	3
__ZNSt8__detailL19_S_invalid_state_idE:
	.xword	-1
	.cstring
	.align	3
lC0:
	.ascii "%d\0"
	.align	3
lC1:
	.ascii "\12\0"
	.text
	.align	2
	.globl __Z5solvev
__Z5solvev:
LFB11493:
	sub	sp, sp, #176
LCFI10:
	stp	x29, x30, [sp, 16]
LCFI11:
	add	x29, sp, 16
	stp	x19, x20, [sp, 32]
LCFI12:
	add	x0, sp, 76
	str	x0, [sp]
	adrp	x0, lC0@PAGE
	add	x0, x0, lC0@PAGEOFF;momd
LEHB0:
	bl	_scanf
LEHE0:
	ldr	w0, [sp, 76]
	lsl	w0, w0, 1
	sxtw	x19, w0
	ldr	w0, [sp, 76]
	sxtw	x20, w0
	mov	w0, 32
	strb	w0, [sp, 111]
	add	x0, sp, 112
	bl	__ZNSaIcEC1Ev
	add	x2, sp, 112
	add	x1, sp, 111
	add	x0, sp, 80
	mov	x3, x2
	mov	x2, x1
	mov	x1, x20
LEHB1:
	bl	__ZNSt6vectorIcSaIcEEC1EmRKcRKS0_
LEHE1:
	add	x0, sp, 120
	bl	__ZNSaISt6vectorIcSaIcEEEC1Ev
	add	x2, sp, 120
	add	x1, sp, 80
	add	x0, sp, 48
	mov	x3, x2
	mov	x2, x1
	mov	x1, x19
LEHB2:
	bl	__ZNSt6vectorIS_IcSaIcEESaIS1_EEC1EmRKS1_RKS2_
LEHE2:
	add	x0, sp, 120
	bl	__ZNSaISt6vectorIcSaIcEEED1Ev
	add	x0, sp, 80
	bl	__ZNSt6vectorIcSaIcEED1Ev
	add	x0, sp, 112
	bl	__ZNSaIcED1Ev
	str	wzr, [sp, 172]
	b	L13
L17:
	str	wzr, [sp, 168]
	b	L14
L16:
	ldr	w1, [sp, 172]
	ldr	w0, [sp, 168]
	add	w0, w1, w0
	and	w0, w0, 1
	cmp	w0, 0
	bne	L15
	ldrsw	x1, [sp, 172]
	add	x0, sp, 48
	bl	__ZNSt6vectorIS_IcSaIcEESaIS1_EEixEm
	mov	x2, x0
	ldrsw	x0, [sp, 168]
	mov	x1, x0
	mov	x0, x2
	bl	__ZNSt6vectorIcSaIcEEixEm
	mov	x1, x0
	mov	w0, 42
	strb	w0, [x1]
L15:
	ldr	w0, [sp, 168]
	add	w0, w0, 1
	str	w0, [sp, 168]
L14:
	ldr	w0, [sp, 76]
	ldr	w1, [sp, 168]
	cmp	w1, w0
	blt	L16
	ldr	w0, [sp, 172]
	add	w0, w0, 1
	str	w0, [sp, 172]
L13:
	ldr	w0, [sp, 76]
	lsl	w0, w0, 1
	ldr	w1, [sp, 172]
	cmp	w1, w0
	blt	L17
	str	wzr, [sp, 164]
	b	L18
L19:
	ldrsw	x1, [sp, 164]
	add	x0, sp, 48
	bl	__ZNSt6vectorIS_IcSaIcEESaIS1_EEixEm
	bl	__ZNSt6vectorIcSaIcEE5beginEv
	mov	x19, x0
	ldrsw	x1, [sp, 164]
	add	x0, sp, 48
	bl	__ZNSt6vectorIS_IcSaIcEESaIS1_EEixEm
	bl	__ZNSt6vectorIcSaIcEE3endEv
	mov	x20, x0
	add	x0, sp, 160
	bl	__ZNSaIcEC1Ev
	add	x1, sp, 160
	add	x0, sp, 128
	mov	x3, x1
	mov	x2, x20
	mov	x1, x19
LEHB3:
	bl	__ZNSt7__cxx1112basic_stringIcSt11char_traitsIcESaIcEEC1IN9__gnu_cxx17__normal_iteratorIPcSt6vectorIcS3_EEEvEET_SC_RKS3_
LEHE3:
	add	x0, sp, 128
	mov	x1, x0
	adrp	x0, __ZSt4cout@GOTPAGE
	ldr	x0, [x0, __ZSt4cout@GOTPAGEOFF];momd
LEHB4:
	bl	__ZStlsIcSt11char_traitsIcESaIcEERSt13basic_ostreamIT_T0_ES7_RKNSt7__cxx1112basic_stringIS4_S5_T1_EE
	mov	x2, x0
	adrp	x0, lC1@PAGE
	add	x1, x0, lC1@PAGEOFF;momd
	mov	x0, x2
	bl	__ZStlsISt11char_traitsIcEERSt13basic_ostreamIcT_ES5_PKc
LEHE4:
	add	x0, sp, 128
	bl	__ZNSt7__cxx1112basic_stringIcSt11char_traitsIcESaIcEED1Ev
	add	x0, sp, 160
	bl	__ZNSaIcED1Ev
	ldr	w0, [sp, 164]
	add	w0, w0, 1
	str	w0, [sp, 164]
L18:
	ldrsw	x19, [sp, 164]
	add	x0, sp, 48
	bl	__ZNKSt6vectorIS_IcSaIcEESaIS1_EE4sizeEv
	cmp	x19, x0
	cset	w0, cc
	and	w0, w0, 255
	cmp	w0, 0
	bne	L19
	add	x0, sp, 48
	bl	__ZNSt6vectorIS_IcSaIcEESaIS1_EED1Ev
	b	L28
L25:
	mov	x19, x0
	add	x0, sp, 120
	bl	__ZNSaISt6vectorIcSaIcEEED1Ev
	add	x0, sp, 80
	bl	__ZNSt6vectorIcSaIcEED1Ev
	b	L21
L24:
	mov	x19, x0
L21:
	add	x0, sp, 112
	bl	__ZNSaIcED1Ev
	mov	x0, x19
LEHB5:
	bl	__Unwind_Resume
L27:
	mov	x19, x0
	add	x0, sp, 128
	bl	__ZNSt7__cxx1112basic_stringIcSt11char_traitsIcESaIcEED1Ev
	b	L23
L26:
	mov	x19, x0
L23:
	add	x0, sp, 160
	bl	__ZNSaIcED1Ev
	add	x0, sp, 48
	bl	__ZNSt6vectorIS_IcSaIcEESaIS1_EED1Ev
	mov	x0, x19
	bl	__Unwind_Resume
LEHE5:
L28:
	ldp	x19, x20, [sp, 32]
	ldp	x29, x30, [sp, 16]
	add	sp, sp, 176
LCFI13:
	ret
LFE11493:
	.section __DATA,__gcc_except_tab
GCC_except_table0:
LLSDA11493:
	.byte	0xff
	.byte	0xff
	.byte	0x1
	.uleb128 LLSDACSE11493-LLSDACSB11493
LLSDACSB11493:
	.uleb128 LEHB0-LFB11493
	.uleb128 LEHE0-LEHB0
	.uleb128 0
	.uleb128 0
	.uleb128 LEHB1-LFB11493
	.uleb128 LEHE1-LEHB1
	.uleb128 L24-LFB11493
	.uleb128 0
	.uleb128 LEHB2-LFB11493
	.uleb128 LEHE2-LEHB2
	.uleb128 L25-LFB11493
	.uleb128 0
	.uleb128 LEHB3-LFB11493
	.uleb128 LEHE3-LEHB3
	.uleb128 L26-LFB11493
	.uleb128 0
	.uleb128 LEHB4-LFB11493
	.uleb128 LEHE4-LEHB4
	.uleb128 L27-LFB11493
	.uleb128 0
	.uleb128 LEHB5-LFB11493
	.uleb128 LEHE5-LEHB5
	.uleb128 0
	.uleb128 0
LLSDACSE11493:
	.text
	.align	2
	.globl _main
_main:
LFB11494:
	stp	x29, x30, [sp, -32]!
LCFI14:
	mov	x29, sp
	mov	w0, 1
	str	w0, [sp, 28]
	b	L30
L31:
	bl	__Z5solvev
L30:
	ldr	w0, [sp, 28]
	sub	w1, w0, #1
	str	w1, [sp, 28]
	cmp	w0, 0
	cset	w0, ne
	and	w0, w0, 255
	cmp	w0, 0
	bne	L31
	mov	w0, 0
	ldp	x29, x30, [sp], 32
LCFI15:
	ret
LFE11494:
	.align	2
	.globl __ZSt6fill_nIPcmcET_S1_T0_RKT1_
	.weak_definition __ZSt6fill_nIPcmcET_S1_T0_RKT1_
__ZSt6fill_nIPcmcET_S1_T0_RKT1_:
LFB11550:
	stp	x29, x30, [sp, -80]!
LCFI16:
	mov	x29, sp
	stp	x19, x20, [sp, 16]
	str	x21, [sp, 32]
LCFI17:
	str	x0, [sp, 72]
	str	x1, [sp, 64]
	str	x2, [sp, 56]
	ldr	x19, [sp, 72]
	ldr	x0, [sp, 64]
	bl	__ZSt17__size_to_integerm
	mov	x20, x0
	add	x0, sp, 72
	bl	__ZSt19__iterator_categoryIPcENSt15iterator_traitsIT_E17iterator_categoryERKS2_
	mov	w3, w21
	ldr	x2, [sp, 56]
	mov	x1, x20
	mov	x0, x19
	bl	__ZSt10__fill_n_aIPcmcET_S1_T0_RKT1_St26random_access_iterator_tag
	ldp	x19, x20, [sp, 16]
	ldr	x21, [sp, 32]
	ldp	x29, x30, [sp], 80
LCFI18:
	ret
LFE11550:
	.align	2
	.globl __ZNSt7__cxx1112basic_stringIcSt11char_traitsIcESaIcEE12_Alloc_hiderD1Ev
	.weak_definition __ZNSt7__cxx1112basic_stringIcSt11char_traitsIcESaIcEE12_Alloc_hiderD1Ev
__ZNSt7__cxx1112basic_stringIcSt11char_traitsIcESaIcEE12_Alloc_hiderD1Ev:
LFB11683:
	stp	x29, x30, [sp, -32]!
LCFI19:
	mov	x29, sp
	str	x0, [sp, 24]
	ldr	x0, [sp, 24]
	bl	__ZNSaIcED2Ev
	nop
	ldp	x29, x30, [sp], 32
LCFI20:
	ret
LFE11683:
	.align	2
	.globl __ZNSt7__cxx1112basic_stringIcSt11char_traitsIcESaIcEED1Ev
	.weak_definition __ZNSt7__cxx1112basic_stringIcSt11char_traitsIcESaIcEED1Ev
__ZNSt7__cxx1112basic_stringIcSt11char_traitsIcESaIcEED1Ev:
LFB11688:
	stp	x29, x30, [sp, -32]!
LCFI21:
	mov	x29, sp
	str	x0, [sp, 24]
	ldr	x0, [sp, 24]
	bl	__ZNSt7__cxx1112basic_stringIcSt11char_traitsIcESaIcEE10_M_disposeEv
	ldr	x0, [sp, 24]
	bl	__ZNSt7__cxx1112basic_stringIcSt11char_traitsIcESaIcEE12_Alloc_hiderD1Ev
	nop
	ldp	x29, x30, [sp], 32
LCFI22:
	ret
LFE11688:
	.section __DATA,__gcc_except_tab
GCC_except_table1:
LLSDA11688:
	.byte	0xff
	.byte	0xff
	.byte	0x1
	.uleb128 LLSDACSE11688-LLSDACSB11688
LLSDACSB11688:
LLSDACSE11688:
	.text
	.align	2
	.globl __ZNSt6vectorIcSaIcEEC1EmRKcRKS0_
	.weak_definition __ZNSt6vectorIcSaIcEEC1EmRKcRKS0_
__ZNSt6vectorIcSaIcEEC1EmRKcRKS0_:
LFB12356:
	stp	x29, x30, [sp, -64]!
LCFI23:
	mov	x29, sp
	str	x19, [sp, 16]
LCFI24:
	str	x0, [sp, 56]
	str	x1, [sp, 48]
	str	x2, [sp, 40]
	str	x3, [sp, 32]
	ldr	x19, [sp, 56]
	ldr	x1, [sp, 32]
	ldr	x0, [sp, 48]
LEHB6:
	bl	__ZNSt6vectorIcSaIcEE17_S_check_init_lenEmRKS0_
	ldr	x2, [sp, 32]
	mov	x1, x0
	mov	x0, x19
	bl	__ZNSt12_Vector_baseIcSaIcEEC2EmRKS0_
LEHE6:
	ldr	x2, [sp, 40]
	ldr	x1, [sp, 48]
	ldr	x0, [sp, 56]
LEHB7:
	bl	__ZNSt6vectorIcSaIcEE18_M_fill_initializeEmRKc
LEHE7:
	b	L40
L39:
	mov	x19, x0
	ldr	x0, [sp, 56]
	bl	__ZNSt12_Vector_baseIcSaIcEED2Ev
	mov	x0, x19
LEHB8:
	bl	__Unwind_Resume
LEHE8:
L40:
	ldr	x19, [sp, 16]
	ldp	x29, x30, [sp], 64
LCFI25:
	ret
LFE12356:
	.section __DATA,__gcc_except_tab
GCC_except_table2:
LLSDA12356:
	.byte	0xff
	.byte	0xff
	.byte	0x1
	.uleb128 LLSDACSE12356-LLSDACSB12356
LLSDACSB12356:
	.uleb128 LEHB6-LFB12356
	.uleb128 LEHE6-LEHB6
	.uleb128 0
	.uleb128 0
	.uleb128 LEHB7-LFB12356
	.uleb128 LEHE7-LEHB7
	.uleb128 L39-LFB12356
	.uleb128 0
	.uleb128 LEHB8-LFB12356
	.uleb128 LEHE8-LEHB8
	.uleb128 0
	.uleb128 0
LLSDACSE12356:
	.text
	.align	2
	.globl __ZNSt6vectorIcSaIcEED1Ev
	.weak_definition __ZNSt6vectorIcSaIcEED1Ev
__ZNSt6vectorIcSaIcEED1Ev:
LFB12359:
	stp	x29, x30, [sp, -48]!
LCFI26:
	mov	x29, sp
	stp	x19, x20, [sp, 16]
LCFI27:
	str	x0, [sp, 40]
	ldr	x0, [sp, 40]
	ldr	x19, [x0]
	ldr	x0, [sp, 40]
	ldr	x20, [x0, 8]
	ldr	x0, [sp, 40]
	bl	__ZNSt12_Vector_baseIcSaIcEE19_M_get_Tp_allocatorEv
	mov	x2, x0
	mov	x1, x20
	mov	x0, x19
	bl	__ZSt8_DestroyIPccEvT_S1_RSaIT0_E
	ldr	x0, [sp, 40]
	bl	__ZNSt12_Vector_baseIcSaIcEED2Ev
	nop
	ldp	x19, x20, [sp, 16]
	ldp	x29, x30, [sp], 48
LCFI28:
	ret
LFE12359:
	.section __DATA,__gcc_except_tab
GCC_except_table3:
LLSDA12359:
	.byte	0xff
	.byte	0xff
	.byte	0x1
	.uleb128 LLSDACSE12359-LLSDACSB12359
LLSDACSB12359:
LLSDACSE12359:
	.text
	.align	2
	.globl __ZNSaISt6vectorIcSaIcEEEC1Ev
	.weak_definition __ZNSaISt6vectorIcSaIcEEEC1Ev
__ZNSaISt6vectorIcSaIcEEEC1Ev:
LFB12362:
	stp	x29, x30, [sp, -32]!
LCFI29:
	mov	x29, sp
	str	x0, [sp, 24]
	ldr	x0, [sp, 24]
	bl	__ZN9__gnu_cxx13new_allocatorISt6vectorIcSaIcEEEC2Ev
	nop
	ldp	x29, x30, [sp], 32
LCFI30:
	ret
LFE12362:
	.align	2
	.globl __ZNSaISt6vectorIcSaIcEEED2Ev
	.weak_definition __ZNSaISt6vectorIcSaIcEEED2Ev
__ZNSaISt6vectorIcSaIcEEED2Ev:
LFB12364:
	sub	sp, sp, #16
LCFI31:
	str	x0, [sp, 8]
	nop
	add	sp, sp, 16
LCFI32:
	ret
LFE12364:
	.align	2
	.globl __ZNSaISt6vectorIcSaIcEEED1Ev
	.weak_definition __ZNSaISt6vectorIcSaIcEEED1Ev
__ZNSaISt6vectorIcSaIcEEED1Ev:
LFB12365:
	sub	sp, sp, #16
LCFI33:
	str	x0, [sp, 8]
	nop
	add	sp, sp, 16
LCFI34:
	ret
LFE12365:
	.align	2
	.globl __ZNSt6vectorIS_IcSaIcEESaIS1_EEC1EmRKS1_RKS2_
	.weak_definition __ZNSt6vectorIS_IcSaIcEESaIS1_EEC1EmRKS1_RKS2_
__ZNSt6vectorIS_IcSaIcEESaIS1_EEC1EmRKS1_RKS2_:
LFB12368:
	stp	x29, x30, [sp, -64]!
LCFI35:
	mov	x29, sp
	str	x19, [sp, 16]
LCFI36:
	str	x0, [sp, 56]
	str	x1, [sp, 48]
	str	x2, [sp, 40]
	str	x3, [sp, 32]
	ldr	x19, [sp, 56]
	ldr	x1, [sp, 32]
	ldr	x0, [sp, 48]
LEHB9:
	bl	__ZNSt6vectorIS_IcSaIcEESaIS1_EE17_S_check_init_lenEmRKS2_
	ldr	x2, [sp, 32]
	mov	x1, x0
	mov	x0, x19
	bl	__ZNSt12_Vector_baseISt6vectorIcSaIcEESaIS2_EEC2EmRKS3_
LEHE9:
	ldr	x2, [sp, 40]
	ldr	x1, [sp, 48]
	ldr	x0, [sp, 56]
LEHB10:
	bl	__ZNSt6vectorIS_IcSaIcEESaIS1_EE18_M_fill_initializeEmRKS1_
LEHE10:
	b	L48
L47:
	mov	x19, x0
	ldr	x0, [sp, 56]
	bl	__ZNSt12_Vector_baseISt6vectorIcSaIcEESaIS2_EED2Ev
	mov	x0, x19
LEHB11:
	bl	__Unwind_Resume
LEHE11:
L48:
	ldr	x19, [sp, 16]
	ldp	x29, x30, [sp], 64
LCFI37:
	ret
LFE12368:
	.section __DATA,__gcc_except_tab
GCC_except_table4:
LLSDA12368:
	.byte	0xff
	.byte	0xff
	.byte	0x1
	.uleb128 LLSDACSE12368-LLSDACSB12368
LLSDACSB12368:
	.uleb128 LEHB9-LFB12368
	.uleb128 LEHE9-LEHB9
	.uleb128 0
	.uleb128 0
	.uleb128 LEHB10-LFB12368
	.uleb128 LEHE10-LEHB10
	.uleb128 L47-LFB12368
	.uleb128 0
	.uleb128 LEHB11-LFB12368
	.uleb128 LEHE11-LEHB11
	.uleb128 0
	.uleb128 0
LLSDACSE12368:
	.text
	.align	2
	.globl __ZNSt6vectorIS_IcSaIcEESaIS1_EED1Ev
	.weak_definition __ZNSt6vectorIS_IcSaIcEESaIS1_EED1Ev
__ZNSt6vectorIS_IcSaIcEESaIS1_EED1Ev:
LFB12371:
	stp	x29, x30, [sp, -48]!
LCFI38:
	mov	x29, sp
	stp	x19, x20, [sp, 16]
LCFI39:
	str	x0, [sp, 40]
	ldr	x0, [sp, 40]
	ldr	x19, [x0]
	ldr	x0, [sp, 40]
	ldr	x20, [x0, 8]
	ldr	x0, [sp, 40]
	bl	__ZNSt12_Vector_baseISt6vectorIcSaIcEESaIS2_EE19_M_get_Tp_allocatorEv
	mov	x2, x0
	mov	x1, x20
	mov	x0, x19
	bl	__ZSt8_DestroyIPSt6vectorIcSaIcEES2_EvT_S4_RSaIT0_E
	ldr	x0, [sp, 40]
	bl	__ZNSt12_Vector_baseISt6vectorIcSaIcEESaIS2_EED2Ev
	nop
	ldp	x19, x20, [sp, 16]
	ldp	x29, x30, [sp], 48
LCFI40:
	ret
LFE12371:
	.section __DATA,__gcc_except_tab
GCC_except_table5:
LLSDA12371:
	.byte	0xff
	.byte	0xff
	.byte	0x1
	.uleb128 LLSDACSE12371-LLSDACSB12371
LLSDACSB12371:
LLSDACSE12371:
	.text
	.align	2
	.globl __ZNSt6vectorIS_IcSaIcEESaIS1_EEixEm
	.weak_definition __ZNSt6vectorIS_IcSaIcEESaIS1_EEixEm
__ZNSt6vectorIS_IcSaIcEESaIS1_EEixEm:
LFB12372:
	sub	sp, sp, #16
LCFI41:
	str	x0, [sp, 8]
	str	x1, [sp]
	ldr	x0, [sp, 8]
	ldr	x2, [x0]
	ldr	x1, [sp]
	mov	x0, x1
	lsl	x0, x0, 1
	add	x0, x0, x1
	lsl	x0, x0, 3
	add	x0, x2, x0
	add	sp, sp, 16
LCFI42:
	ret
LFE12372:
	.align	2
	.globl __ZNSt6vectorIcSaIcEEixEm
	.weak_definition __ZNSt6vectorIcSaIcEEixEm
__ZNSt6vectorIcSaIcEEixEm:
LFB12373:
	sub	sp, sp, #16
LCFI43:
	str	x0, [sp, 8]
	str	x1, [sp]
	ldr	x0, [sp, 8]
	ldr	x1, [x0]
	ldr	x0, [sp]
	add	x0, x1, x0
	add	sp, sp, 16
LCFI44:
	ret
LFE12373:
	.align	2
	.globl __ZNKSt6vectorIS_IcSaIcEESaIS1_EE4sizeEv
	.weak_definition __ZNKSt6vectorIS_IcSaIcEESaIS1_EE4sizeEv
__ZNKSt6vectorIS_IcSaIcEESaIS1_EE4sizeEv:
LFB12374:
	sub	sp, sp, #16
LCFI45:
	str	x0, [sp, 8]
	ldr	x0, [sp, 8]
	ldr	x1, [x0, 8]
	ldr	x0, [sp, 8]
	ldr	x0, [x0]
	sub	x0, x1, x0
	asr	x1, x0, 3
	mov	x0, -6148914691236517206
	movk	x0, 0xaaab, lsl 0
	mul	x0, x1, x0
	add	sp, sp, 16
LCFI46:
	ret
LFE12374:
	.align	2
	.globl __ZNSt6vectorIcSaIcEE5beginEv
	.weak_definition __ZNSt6vectorIcSaIcEE5beginEv
__ZNSt6vectorIcSaIcEE5beginEv:
LFB12375:
	stp	x29, x30, [sp, -48]!
LCFI47:
	mov	x29, sp
	str	x0, [sp, 24]
	ldr	x1, [sp, 24]
	add	x0, sp, 40
	bl	__ZN9__gnu_cxx17__normal_iteratorIPcSt6vectorIcSaIcEEEC1ERKS1_
	ldr	x0, [sp, 40]
	ldp	x29, x30, [sp], 48
LCFI48:
	ret
LFE12375:
	.align	2
	.globl __ZNSt6vectorIcSaIcEE3endEv
	.weak_definition __ZNSt6vectorIcSaIcEE3endEv
__ZNSt6vectorIcSaIcEE3endEv:
LFB12376:
	stp	x29, x30, [sp, -48]!
LCFI49:
	mov	x29, sp
	str	x0, [sp, 24]
	ldr	x0, [sp, 24]
	add	x1, x0, 8
	add	x0, sp, 40
	bl	__ZN9__gnu_cxx17__normal_iteratorIPcSt6vectorIcSaIcEEEC1ERKS1_
	ldr	x0, [sp, 40]
	ldp	x29, x30, [sp], 48
LCFI50:
	ret
LFE12376:
	.align	2
	.globl __ZNSt7__cxx1112basic_stringIcSt11char_traitsIcESaIcEEC1IN9__gnu_cxx17__normal_iteratorIPcSt6vectorIcS3_EEEvEET_SC_RKS3_
	.weak_definition __ZNSt7__cxx1112basic_stringIcSt11char_traitsIcESaIcEEC1IN9__gnu_cxx17__normal_iteratorIPcSt6vectorIcS3_EEEvEET_SC_RKS3_
__ZNSt7__cxx1112basic_stringIcSt11char_traitsIcESaIcEEC1IN9__gnu_cxx17__normal_iteratorIPcSt6vectorIcS3_EEEvEET_SC_RKS3_:
LFB12379:
	stp	x29, x30, [sp, -64]!
LCFI51:
	mov	x29, sp
	str	x19, [sp, 16]
LCFI52:
	str	x0, [sp, 56]
	str	x1, [sp, 48]
	str	x2, [sp, 40]
	str	x3, [sp, 32]
	ldr	x19, [sp, 56]
	ldr	x0, [sp, 56]
	bl	__ZNSt7__cxx1112basic_stringIcSt11char_traitsIcESaIcEE13_M_local_dataEv
	ldr	x2, [sp, 32]
	mov	x1, x0
	mov	x0, x19
	bl	__ZNSt7__cxx1112basic_stringIcSt11char_traitsIcESaIcEE12_Alloc_hiderC1EPcRKS3_
	ldr	x2, [sp, 40]
	ldr	x1, [sp, 48]
	ldr	x0, [sp, 56]
LEHB12:
	bl	__ZNSt7__cxx1112basic_stringIcSt11char_traitsIcESaIcEE12_M_constructIN9__gnu_cxx17__normal_iteratorIPcSt6vectorIcS3_EEEEEvT_SC_
LEHE12:
	b	L63
L62:
	mov	x19, x0
	ldr	x0, [sp, 56]
	bl	__ZNSt7__cxx1112basic_stringIcSt11char_traitsIcESaIcEE12_Alloc_hiderD1Ev
	mov	x0, x19
LEHB13:
	bl	__Unwind_Resume
LEHE13:
L63:
	ldr	x19, [sp, 16]
	ldp	x29, x30, [sp], 64
LCFI53:
	ret
LFE12379:
	.section __DATA,__gcc_except_tab
GCC_except_table6:
LLSDA12379:
	.byte	0xff
	.byte	0xff
	.byte	0x1
	.uleb128 LLSDACSE12379-LLSDACSB12379
LLSDACSB12379:
	.uleb128 LEHB12-LFB12379
	.uleb128 LEHE12-LEHB12
	.uleb128 L62-LFB12379
	.uleb128 0
	.uleb128 LEHB13-LFB12379
	.uleb128 LEHE13-LEHB13
	.uleb128 0
	.uleb128 0
LLSDACSE12379:
	.text
	.align	2
	.globl __ZSt19__iterator_categoryIPcENSt15iterator_traitsIT_E17iterator_categoryERKS2_
	.weak_definition __ZSt19__iterator_categoryIPcENSt15iterator_traitsIT_E17iterator_categoryERKS2_
__ZSt19__iterator_categoryIPcENSt15iterator_traitsIT_E17iterator_categoryERKS2_:
LFB12422:
	sub	sp, sp, #16
LCFI54:
	str	x0, [sp, 8]
	mov	w0, w1
	add	sp, sp, 16
LCFI55:
	ret
LFE12422:
	.align	2
	.globl __ZSt10__fill_n_aIPcmcET_S1_T0_RKT1_St26random_access_iterator_tag
	.weak_definition __ZSt10__fill_n_aIPcmcET_S1_T0_RKT1_St26random_access_iterator_tag
__ZSt10__fill_n_aIPcmcET_S1_T0_RKT1_St26random_access_iterator_tag:
LFB12423:
	stp	x29, x30, [sp, -48]!
LCFI56:
	mov	x29, sp
	str	x0, [sp, 40]
	str	x1, [sp, 32]
	str	x2, [sp, 24]
	strb	w3, [sp, 16]
	ldr	x0, [sp, 32]
	cmp	x0, 0
	bne	L67
	ldr	x0, [sp, 40]
	b	L68
L67:
	ldr	x1, [sp, 40]
	ldr	x0, [sp, 32]
	add	x0, x1, x0
	ldr	x2, [sp, 24]
	mov	x1, x0
	ldr	x0, [sp, 40]
	bl	__ZSt8__fill_aIPccEvT_S1_RKT0_
	ldr	x1, [sp, 40]
	ldr	x0, [sp, 32]
	add	x0, x1, x0
L68:
	ldp	x29, x30, [sp], 48
LCFI57:
	ret
LFE12423:
	.align	2
	.globl __ZNKSt7__cxx1112basic_stringIcSt11char_traitsIcESaIcEE7_M_dataEv
	.weak_definition __ZNKSt7__cxx1112basic_stringIcSt11char_traitsIcESaIcEE7_M_dataEv
__ZNKSt7__cxx1112basic_stringIcSt11char_traitsIcESaIcEE7_M_dataEv:
LFB12444:
	sub	sp, sp, #16
LCFI58:
	str	x0, [sp, 8]
	ldr	x0, [sp, 8]
	ldr	x0, [x0]
	add	sp, sp, 16
LCFI59:
	ret
LFE12444:
	.align	2
	.globl __ZNSt7__cxx1112basic_stringIcSt11char_traitsIcESaIcEE13_M_local_dataEv
	.weak_definition __ZNSt7__cxx1112basic_stringIcSt11char_traitsIcESaIcEE13_M_local_dataEv
__ZNSt7__cxx1112basic_stringIcSt11char_traitsIcESaIcEE13_M_local_dataEv:
LFB12448:
	stp	x29, x30, [sp, -32]!
LCFI60:
	mov	x29, sp
	str	x0, [sp, 24]
	ldr	x0, [sp, 24]
	add	x0, x0, 16
	bl	__ZNSt14pointer_traitsIPcE10pointer_toERc
	ldp	x29, x30, [sp], 32
LCFI61:
	ret
LFE12448:
	.align	2
	.globl __ZNSt7__cxx1112basic_stringIcSt11char_traitsIcESaIcEE12_Alloc_hiderC1EPcRKS3_
	.weak_definition __ZNSt7__cxx1112basic_stringIcSt11char_traitsIcESaIcEE12_Alloc_hiderC1EPcRKS3_
__ZNSt7__cxx1112basic_stringIcSt11char_traitsIcESaIcEE12_Alloc_hiderC1EPcRKS3_:
LFB12451:
	stp	x29, x30, [sp, -48]!
LCFI62:
	mov	x29, sp
	str	x0, [sp, 40]
	str	x1, [sp, 32]
	str	x2, [sp, 24]
	ldr	x1, [sp, 24]
	ldr	x0, [sp, 40]
	bl	__ZNSaIcEC2ERKS_
	ldr	x0, [sp, 40]
	ldr	x1, [sp, 32]
	str	x1, [x0]
	nop
	ldp	x29, x30, [sp], 48
LCFI63:
	ret
LFE12451:
	.align	2
	.globl __ZNSt7__cxx1112basic_stringIcSt11char_traitsIcESaIcEE10_M_disposeEv
	.weak_definition __ZNSt7__cxx1112basic_stringIcSt11char_traitsIcESaIcEE10_M_disposeEv
__ZNSt7__cxx1112basic_stringIcSt11char_traitsIcESaIcEE10_M_disposeEv:
LFB12453:
	stp	x29, x30, [sp, -32]!
LCFI64:
	mov	x29, sp
	str	x0, [sp, 24]
	ldr	x0, [sp, 24]
	bl	__ZNKSt7__cxx1112basic_stringIcSt11char_traitsIcESaIcEE11_M_is_localEv
	and	w0, w0, 255
	eor	w0, w0, 1
	and	w0, w0, 255
	cmp	w0, 0
	beq	L76
	ldr	x0, [sp, 24]
	ldr	x0, [x0, 16]
	mov	x1, x0
	ldr	x0, [sp, 24]
	bl	__ZNSt7__cxx1112basic_stringIcSt11char_traitsIcESaIcEE10_M_destroyEm
L76:
	nop
	ldp	x29, x30, [sp], 32
LCFI65:
	ret
LFE12453:
	.align	2
	.globl __ZNSt7__cxx1112basic_stringIcSt11char_traitsIcESaIcEE16_M_get_allocatorEv
	.weak_definition __ZNSt7__cxx1112basic_stringIcSt11char_traitsIcESaIcEE16_M_get_allocatorEv
__ZNSt7__cxx1112basic_stringIcSt11char_traitsIcESaIcEE16_M_get_allocatorEv:
LFB12454:
	sub	sp, sp, #16
LCFI66:
	str	x0, [sp, 8]
	ldr	x0, [sp, 8]
	add	sp, sp, 16
LCFI67:
	ret
LFE12454:
	.align	2
	.globl __ZNKSt7__cxx1112basic_stringIcSt11char_traitsIcESaIcEE11_M_is_localEv
	.weak_definition __ZNKSt7__cxx1112basic_stringIcSt11char_traitsIcESaIcEE11_M_is_localEv
__ZNKSt7__cxx1112basic_stringIcSt11char_traitsIcESaIcEE11_M_is_localEv:
LFB12459:
	stp	x29, x30, [sp, -48]!
LCFI68:
	mov	x29, sp
	str	x19, [sp, 16]
LCFI69:
	str	x0, [sp, 40]
	ldr	x0, [sp, 40]
	bl	__ZNKSt7__cxx1112basic_stringIcSt11char_traitsIcESaIcEE7_M_dataEv
	mov	x19, x0
	ldr	x0, [sp, 40]
	bl	__ZNKSt7__cxx1112basic_stringIcSt11char_traitsIcESaIcEE13_M_local_dataEv
	cmp	x19, x0
	cset	w0, eq
	and	w0, w0, 255
	ldr	x19, [sp, 16]
	ldp	x29, x30, [sp], 48
LCFI70:
	ret
LFE12459:
	.align	2
	.globl __ZNSt7__cxx1112basic_stringIcSt11char_traitsIcESaIcEE7_M_dataEPc
	.weak_definition __ZNSt7__cxx1112basic_stringIcSt11char_traitsIcESaIcEE7_M_dataEPc
__ZNSt7__cxx1112basic_stringIcSt11char_traitsIcESaIcEE7_M_dataEPc:
LFB12460:
	sub	sp, sp, #16
LCFI71:
	str	x0, [sp, 8]
	str	x1, [sp]
	ldr	x0, [sp, 8]
	ldr	x1, [sp]
	str	x1, [x0]
	nop
	add	sp, sp, 16
LCFI72:
	ret
LFE12460:
	.align	2
	.globl __ZNSt7__cxx1112basic_stringIcSt11char_traitsIcESaIcEE11_M_capacityEm
	.weak_definition __ZNSt7__cxx1112basic_stringIcSt11char_traitsIcESaIcEE11_M_capacityEm
__ZNSt7__cxx1112basic_stringIcSt11char_traitsIcESaIcEE11_M_capacityEm:
LFB12461:
	sub	sp, sp, #16
LCFI73:
	str	x0, [sp, 8]
	str	x1, [sp]
	ldr	x0, [sp, 8]
	ldr	x1, [sp]
	str	x1, [x0, 16]
	nop
	add	sp, sp, 16
LCFI74:
	ret
LFE12461:
	.align	2
	.globl __ZNSt7__cxx1112basic_stringIcSt11char_traitsIcESaIcEE9_M_lengthEm
	.weak_definition __ZNSt7__cxx1112basic_stringIcSt11char_traitsIcESaIcEE9_M_lengthEm
__ZNSt7__cxx1112basic_stringIcSt11char_traitsIcESaIcEE9_M_lengthEm:
LFB12462:
	sub	sp, sp, #16
LCFI75:
	str	x0, [sp, 8]
	str	x1, [sp]
	ldr	x0, [sp, 8]
	ldr	x1, [sp]
	str	x1, [x0, 8]
	nop
	add	sp, sp, 16
LCFI76:
	ret
LFE12462:
	.align	2
	.globl __ZNSt7__cxx1112basic_stringIcSt11char_traitsIcESaIcEE13_M_set_lengthEm
	.weak_definition __ZNSt7__cxx1112basic_stringIcSt11char_traitsIcESaIcEE13_M_set_lengthEm
__ZNSt7__cxx1112basic_stringIcSt11char_traitsIcESaIcEE13_M_set_lengthEm:
LFB12463:
	stp	x29, x30, [sp, -48]!
LCFI77:
	mov	x29, sp
	str	x0, [sp, 24]
	str	x1, [sp, 16]
	ldr	x1, [sp, 16]
	ldr	x0, [sp, 24]
	bl	__ZNSt7__cxx1112basic_stringIcSt11char_traitsIcESaIcEE9_M_lengthEm
	ldr	x0, [sp, 24]
	bl	__ZNKSt7__cxx1112basic_stringIcSt11char_traitsIcESaIcEE7_M_dataEv
	mov	x1, x0
	ldr	x0, [sp, 16]
	add	x0, x1, x0
	strb	wzr, [sp, 47]
	add	x1, sp, 47
	bl	__ZNSt11char_traitsIcE6assignERcRKc
	nop
	ldp	x29, x30, [sp], 48
LCFI78:
	ret
LFE12463:
	.align	2
	.globl __ZN9__gnu_cxx14__alloc_traitsISaIcEcE17_S_select_on_copyERKS1_
	.weak_definition __ZN9__gnu_cxx14__alloc_traitsISaIcEcE17_S_select_on_copyERKS1_
__ZN9__gnu_cxx14__alloc_traitsISaIcEcE17_S_select_on_copyERKS1_:
LFB12751:
	stp	x29, x30, [sp, -48]!
LCFI79:
	mov	x29, sp
	str	x19, [sp, 16]
LCFI80:
	mov	x19, x8
	str	x0, [sp, 40]
	mov	x8, x19
	ldr	x0, [sp, 40]
	bl	__ZNSt16allocator_traitsISaIcEE37select_on_container_copy_constructionERKS0_
	mov	x0, x19
	ldr	x19, [sp, 16]
	ldp	x29, x30, [sp], 48
LCFI81:
	ret
LFE12751:
	.align	2
	.globl __ZNKSt7__cxx1112basic_stringIcSt11char_traitsIcESaIcEE16_M_get_allocatorEv
	.weak_definition __ZNKSt7__cxx1112basic_stringIcSt11char_traitsIcESaIcEE16_M_get_allocatorEv
__ZNKSt7__cxx1112basic_stringIcSt11char_traitsIcESaIcEE16_M_get_allocatorEv:
LFB12752:
	sub	sp, sp, #16
LCFI82:
	str	x0, [sp, 8]
	ldr	x0, [sp, 8]
	add	sp, sp, 16
LCFI83:
	ret
LFE12752:
	.align	2
	.globl __ZNSt7__cxx1112basic_stringIcSt11char_traitsIcESaIcEE10_M_destroyEm
	.weak_definition __ZNSt7__cxx1112basic_stringIcSt11char_traitsIcESaIcEE10_M_destroyEm
__ZNSt7__cxx1112basic_stringIcSt11char_traitsIcESaIcEE10_M_destroyEm:
LFB12765:
	stp	x29, x30, [sp, -48]!
LCFI84:
	mov	x29, sp
	str	x19, [sp, 16]
LCFI85:
	str	x0, [sp, 40]
	str	x1, [sp, 32]
	ldr	x0, [sp, 40]
	bl	__ZNSt7__cxx1112basic_stringIcSt11char_traitsIcESaIcEE16_M_get_allocatorEv
	mov	x19, x0
	ldr	x0, [sp, 40]
	bl	__ZNKSt7__cxx1112basic_stringIcSt11char_traitsIcESaIcEE7_M_dataEv
	mov	x1, x0
	ldr	x0, [sp, 32]
	add	x0, x0, 1
	mov	x2, x0
	mov	x0, x19
	bl	__ZNSt16allocator_traitsISaIcEE10deallocateERS0_Pcm
	nop
	ldr	x19, [sp, 16]
	ldp	x29, x30, [sp], 48
LCFI86:
	ret
LFE12765:
	.section __DATA,__gcc_except_tab
GCC_except_table7:
LLSDA12765:
	.byte	0xff
	.byte	0xff
	.byte	0x1
	.uleb128 LLSDACSE12765-LLSDACSB12765
LLSDACSB12765:
LLSDACSE12765:
	.text
	.align	2
	.globl __ZNSt16allocator_traitsISaIcEE8allocateERS0_m
	.weak_definition __ZNSt16allocator_traitsISaIcEE8allocateERS0_m
__ZNSt16allocator_traitsISaIcEE8allocateERS0_m:
LFB12770:
	stp	x29, x30, [sp, -48]!
LCFI87:
	mov	x29, sp
	str	x0, [sp, 24]
	str	x1, [sp, 16]
	ldr	x0, [sp, 24]
	str	x0, [sp, 40]
	ldr	x0, [sp, 16]
	str	x0, [sp, 32]
	bl	__ZSt21is_constant_evaluatedv
	and	w0, w0, 255
	cmp	w0, 0
	beq	L91
	ldr	x0, [sp, 32]
	bl	__Znwm
	b	L92
L91:
	mov	x2, 0
	ldr	x1, [sp, 32]
	ldr	x0, [sp, 40]
	bl	__ZN9__gnu_cxx13new_allocatorIcE8allocateEmPKv
	nop
L92:
	ldp	x29, x30, [sp], 48
LCFI88:
	ret
LFE12770:
	.cstring
	.align	3
lC2:
	.ascii "cannot create std::vector larger than max_size()\0"
	.text
	.align	2
	.globl __ZNSt6vectorIcSaIcEE17_S_check_init_lenEmRKS0_
	.weak_definition __ZNSt6vectorIcSaIcEE17_S_check_init_lenEmRKS0_
__ZNSt6vectorIcSaIcEE17_S_check_init_lenEmRKS0_:
LFB12832:
	stp	x29, x30, [sp, -64]!
LCFI89:
	mov	x29, sp
	str	x19, [sp, 16]
LCFI90:
	str	x0, [sp, 40]
	str	x1, [sp, 32]
	add	x0, sp, 56
	ldr	x1, [sp, 32]
	bl	__ZNSaIcEC1ERKS_
	add	x0, sp, 56
	bl	__ZNSt6vectorIcSaIcEE11_S_max_sizeERKS0_
	mov	x1, x0
	ldr	x0, [sp, 40]
	cmp	x0, x1
	cset	w0, hi
	and	w19, w0, 255
	add	x0, sp, 56
	bl	__ZNSaIcED1Ev
	cmp	w19, 0
	beq	L95
	adrp	x0, lC2@PAGE
	add	x0, x0, lC2@PAGEOFF;momd
	bl	__ZSt20__throw_length_errorPKc
L95:
	ldr	x0, [sp, 40]
	ldr	x19, [sp, 16]
	ldp	x29, x30, [sp], 64
LCFI91:
	ret
LFE12832:
	.align	2
	.globl __ZNSt12_Vector_baseIcSaIcEE12_Vector_implD1Ev
	.weak_definition __ZNSt12_Vector_baseIcSaIcEE12_Vector_implD1Ev
__ZNSt12_Vector_baseIcSaIcEE12_Vector_implD1Ev:
LFB12836:
	stp	x29, x30, [sp, -32]!
LCFI92:
	mov	x29, sp
	str	x0, [sp, 24]
	ldr	x0, [sp, 24]
	bl	__ZNSaIcED2Ev
	nop
	ldp	x29, x30, [sp], 32
LCFI93:
	ret
LFE12836:
	.align	2
	.globl __ZNSt12_Vector_baseIcSaIcEEC2EmRKS0_
	.weak_definition __ZNSt12_Vector_baseIcSaIcEEC2EmRKS0_
__ZNSt12_Vector_baseIcSaIcEEC2EmRKS0_:
LFB12837:
	stp	x29, x30, [sp, -64]!
LCFI94:
	mov	x29, sp
	str	x19, [sp, 16]
LCFI95:
	str	x0, [sp, 56]
	str	x1, [sp, 48]
	str	x2, [sp, 40]
	ldr	x0, [sp, 56]
	ldr	x1, [sp, 40]
	bl	__ZNSt12_Vector_baseIcSaIcEE12_Vector_implC1ERKS0_
	ldr	x1, [sp, 48]
	ldr	x0, [sp, 56]
LEHB14:
	bl	__ZNSt12_Vector_baseIcSaIcEE17_M_create_storageEm
LEHE14:
	b	L101
L100:
	mov	x19, x0
	ldr	x0, [sp, 56]
	bl	__ZNSt12_Vector_baseIcSaIcEE12_Vector_implD1Ev
	mov	x0, x19
LEHB15:
	bl	__Unwind_Resume
LEHE15:
L101:
	ldr	x19, [sp, 16]
	ldp	x29, x30, [sp], 64
LCFI96:
	ret
LFE12837:
	.section __DATA,__gcc_except_tab
GCC_except_table8:
LLSDA12837:
	.byte	0xff
	.byte	0xff
	.byte	0x1
	.uleb128 LLSDACSE12837-LLSDACSB12837
LLSDACSB12837:
	.uleb128 LEHB14-LFB12837
	.uleb128 LEHE14-LEHB14
	.uleb128 L100-LFB12837
	.uleb128 0
	.uleb128 LEHB15-LFB12837
	.uleb128 LEHE15-LEHB15
	.uleb128 0
	.uleb128 0
LLSDACSE12837:
	.text
	.align	2
	.globl __ZNSt12_Vector_baseIcSaIcEED2Ev
	.weak_definition __ZNSt12_Vector_baseIcSaIcEED2Ev
__ZNSt12_Vector_baseIcSaIcEED2Ev:
LFB12840:
	stp	x29, x30, [sp, -32]!
LCFI97:
	mov	x29, sp
	str	x0, [sp, 24]
	ldr	x0, [sp, 24]
	ldr	x3, [x0]
	ldr	x0, [sp, 24]
	ldr	x1, [x0, 16]
	ldr	x0, [sp, 24]
	ldr	x0, [x0]
	sub	x0, x1, x0
	mov	x2, x0
	mov	x1, x3
	ldr	x0, [sp, 24]
	bl	__ZNSt12_Vector_baseIcSaIcEE13_M_deallocateEPcm
	ldr	x0, [sp, 24]
	bl	__ZNSt12_Vector_baseIcSaIcEE12_Vector_implD1Ev
	nop
	ldp	x29, x30, [sp], 32
LCFI98:
	ret
LFE12840:
	.section __DATA,__gcc_except_tab
GCC_except_table9:
LLSDA12840:
	.byte	0xff
	.byte	0xff
	.byte	0x1
	.uleb128 LLSDACSE12840-LLSDACSB12840
LLSDACSB12840:
LLSDACSE12840:
	.text
	.align	2
	.globl __ZNSt6vectorIcSaIcEE18_M_fill_initializeEmRKc
	.weak_definition __ZNSt6vectorIcSaIcEE18_M_fill_initializeEmRKc
__ZNSt6vectorIcSaIcEE18_M_fill_initializeEmRKc:
LFB12842:
	stp	x29, x30, [sp, -64]!
LCFI99:
	mov	x29, sp
	str	x19, [sp, 16]
LCFI100:
	str	x0, [sp, 56]
	str	x1, [sp, 48]
	str	x2, [sp, 40]
	ldr	x0, [sp, 56]
	ldr	x19, [x0]
	ldr	x0, [sp, 56]
	bl	__ZNSt12_Vector_baseIcSaIcEE19_M_get_Tp_allocatorEv
	mov	x3, x0
	ldr	x2, [sp, 40]
	ldr	x1, [sp, 48]
	mov	x0, x19
	bl	__ZSt24__uninitialized_fill_n_aIPcmccET_S1_T0_RKT1_RSaIT2_E
	mov	x1, x0
	ldr	x0, [sp, 56]
	str	x1, [x0, 8]
	nop
	ldr	x19, [sp, 16]
	ldp	x29, x30, [sp], 64
LCFI101:
	ret
LFE12842:
	.align	2
	.globl __ZNSt12_Vector_baseIcSaIcEE19_M_get_Tp_allocatorEv
	.weak_definition __ZNSt12_Vector_baseIcSaIcEE19_M_get_Tp_allocatorEv
__ZNSt12_Vector_baseIcSaIcEE19_M_get_Tp_allocatorEv:
LFB12843:
	sub	sp, sp, #16
LCFI102:
	str	x0, [sp, 8]
	ldr	x0, [sp, 8]
	add	sp, sp, 16
LCFI103:
	ret
LFE12843:
	.align	2
	.globl __ZSt8_DestroyIPccEvT_S1_RSaIT0_E
	.weak_definition __ZSt8_DestroyIPccEvT_S1_RSaIT0_E
__ZSt8_DestroyIPccEvT_S1_RSaIT0_E:
LFB12844:
	stp	x29, x30, [sp, -48]!
LCFI104:
	mov	x29, sp
	str	x0, [sp, 40]
	str	x1, [sp, 32]
	str	x2, [sp, 24]
	ldr	x1, [sp, 32]
	ldr	x0, [sp, 40]
	bl	__ZSt8_DestroyIPcEvT_S1_
	nop
	ldp	x29, x30, [sp], 48
LCFI105:
	ret
LFE12844:
	.align	2
	.globl __ZN9__gnu_cxx13new_allocatorISt6vectorIcSaIcEEEC2Ev
	.weak_definition __ZN9__gnu_cxx13new_allocatorISt6vectorIcSaIcEEEC2Ev
__ZN9__gnu_cxx13new_allocatorISt6vectorIcSaIcEEEC2Ev:
LFB12846:
	sub	sp, sp, #16
LCFI106:
	str	x0, [sp, 8]
	nop
	add	sp, sp, 16
LCFI107:
	ret
LFE12846:
	.align	2
	.globl __ZNSt6vectorIS_IcSaIcEESaIS1_EE17_S_check_init_lenEmRKS2_
	.weak_definition __ZNSt6vectorIS_IcSaIcEESaIS1_EE17_S_check_init_lenEmRKS2_
__ZNSt6vectorIS_IcSaIcEESaIS1_EE17_S_check_init_lenEmRKS2_:
LFB12848:
	stp	x29, x30, [sp, -64]!
LCFI108:
	mov	x29, sp
	str	x19, [sp, 16]
LCFI109:
	str	x0, [sp, 40]
	str	x1, [sp, 32]
	add	x0, sp, 56
	ldr	x1, [sp, 32]
	bl	__ZNSaISt6vectorIcSaIcEEEC1ERKS2_
	add	x0, sp, 56
	bl	__ZNSt6vectorIS_IcSaIcEESaIS1_EE11_S_max_sizeERKS2_
	mov	x1, x0
	ldr	x0, [sp, 40]
	cmp	x0, x1
	cset	w0, hi
	and	w19, w0, 255
	add	x0, sp, 56
	bl	__ZNSaISt6vectorIcSaIcEEED1Ev
	cmp	w19, 0
	beq	L109
	adrp	x0, lC2@PAGE
	add	x0, x0, lC2@PAGEOFF;momd
	bl	__ZSt20__throw_length_errorPKc
L109:
	ldr	x0, [sp, 40]
	ldr	x19, [sp, 16]
	ldp	x29, x30, [sp], 64
LCFI110:
	ret
LFE12848:
	.align	2
	.globl __ZNSt12_Vector_baseISt6vectorIcSaIcEESaIS2_EE12_Vector_implD1Ev
	.weak_definition __ZNSt12_Vector_baseISt6vectorIcSaIcEESaIS2_EE12_Vector_implD1Ev
__ZNSt12_Vector_baseISt6vectorIcSaIcEESaIS2_EE12_Vector_implD1Ev:
LFB12852:
	stp	x29, x30, [sp, -32]!
LCFI111:
	mov	x29, sp
	str	x0, [sp, 24]
	ldr	x0, [sp, 24]
	bl	__ZNSaISt6vectorIcSaIcEEED2Ev
	nop
	ldp	x29, x30, [sp], 32
LCFI112:
	ret
LFE12852:
	.align	2
	.globl __ZNSt12_Vector_baseISt6vectorIcSaIcEESaIS2_EEC2EmRKS3_
	.weak_definition __ZNSt12_Vector_baseISt6vectorIcSaIcEESaIS2_EEC2EmRKS3_
__ZNSt12_Vector_baseISt6vectorIcSaIcEESaIS2_EEC2EmRKS3_:
LFB12853:
	stp	x29, x30, [sp, -64]!
LCFI113:
	mov	x29, sp
	str	x19, [sp, 16]
LCFI114:
	str	x0, [sp, 56]
	str	x1, [sp, 48]
	str	x2, [sp, 40]
	ldr	x0, [sp, 56]
	ldr	x1, [sp, 40]
	bl	__ZNSt12_Vector_baseISt6vectorIcSaIcEESaIS2_EE12_Vector_implC1ERKS3_
	ldr	x1, [sp, 48]
	ldr	x0, [sp, 56]
LEHB16:
	bl	__ZNSt12_Vector_baseISt6vectorIcSaIcEESaIS2_EE17_M_create_storageEm
LEHE16:
	b	L115
L114:
	mov	x19, x0
	ldr	x0, [sp, 56]
	bl	__ZNSt12_Vector_baseISt6vectorIcSaIcEESaIS2_EE12_Vector_implD1Ev
	mov	x0, x19
LEHB17:
	bl	__Unwind_Resume
LEHE17:
L115:
	ldr	x19, [sp, 16]
	ldp	x29, x30, [sp], 64
LCFI115:
	ret
LFE12853:
	.section __DATA,__gcc_except_tab
GCC_except_table10:
LLSDA12853:
	.byte	0xff
	.byte	0xff
	.byte	0x1
	.uleb128 LLSDACSE12853-LLSDACSB12853
LLSDACSB12853:
	.uleb128 LEHB16-LFB12853
	.uleb128 LEHE16-LEHB16
	.uleb128 L114-LFB12853
	.uleb128 0
	.uleb128 LEHB17-LFB12853
	.uleb128 LEHE17-LEHB17
	.uleb128 0
	.uleb128 0
LLSDACSE12853:
	.text
	.align	2
	.globl __ZNSt12_Vector_baseISt6vectorIcSaIcEESaIS2_EED2Ev
	.weak_definition __ZNSt12_Vector_baseISt6vectorIcSaIcEESaIS2_EED2Ev
__ZNSt12_Vector_baseISt6vectorIcSaIcEESaIS2_EED2Ev:
LFB12856:
	stp	x29, x30, [sp, -32]!
LCFI116:
	mov	x29, sp
	str	x0, [sp, 24]
	ldr	x0, [sp, 24]
	ldr	x3, [x0]
	ldr	x0, [sp, 24]
	ldr	x1, [x0, 16]
	ldr	x0, [sp, 24]
	ldr	x0, [x0]
	sub	x0, x1, x0
	asr	x1, x0, 3
	mov	x0, -6148914691236517206
	movk	x0, 0xaaab, lsl 0
	mul	x0, x1, x0
	mov	x2, x0
	mov	x1, x3
	ldr	x0, [sp, 24]
	bl	__ZNSt12_Vector_baseISt6vectorIcSaIcEESaIS2_EE13_M_deallocateEPS2_m
	ldr	x0, [sp, 24]
	bl	__ZNSt12_Vector_baseISt6vectorIcSaIcEESaIS2_EE12_Vector_implD1Ev
	nop
	ldp	x29, x30, [sp], 32
LCFI117:
	ret
LFE12856:
	.section __DATA,__gcc_except_tab
GCC_except_table11:
LLSDA12856:
	.byte	0xff
	.byte	0xff
	.byte	0x1
	.uleb128 LLSDACSE12856-LLSDACSB12856
LLSDACSB12856:
LLSDACSE12856:
	.text
	.align	2
	.globl __ZNSt6vectorIS_IcSaIcEESaIS1_EE18_M_fill_initializeEmRKS1_
	.weak_definition __ZNSt6vectorIS_IcSaIcEESaIS1_EE18_M_fill_initializeEmRKS1_
__ZNSt6vectorIS_IcSaIcEESaIS1_EE18_M_fill_initializeEmRKS1_:
LFB12858:
	stp	x29, x30, [sp, -64]!
LCFI118:
	mov	x29, sp
	str	x19, [sp, 16]
LCFI119:
	str	x0, [sp, 56]
	str	x1, [sp, 48]
	str	x2, [sp, 40]
	ldr	x0, [sp, 56]
	ldr	x19, [x0]
	ldr	x0, [sp, 56]
	bl	__ZNSt12_Vector_baseISt6vectorIcSaIcEESaIS2_EE19_M_get_Tp_allocatorEv
	mov	x3, x0
	ldr	x2, [sp, 40]
	ldr	x1, [sp, 48]
	mov	x0, x19
	bl	__ZSt24__uninitialized_fill_n_aIPSt6vectorIcSaIcEEmS2_S2_ET_S4_T0_RKT1_RSaIT2_E
	mov	x1, x0
	ldr	x0, [sp, 56]
	str	x1, [x0, 8]
	nop
	ldr	x19, [sp, 16]
	ldp	x29, x30, [sp], 64
LCFI120:
	ret
LFE12858:
	.align	2
	.globl __ZNSt12_Vector_baseISt6vectorIcSaIcEESaIS2_EE19_M_get_Tp_allocatorEv
	.weak_definition __ZNSt12_Vector_baseISt6vectorIcSaIcEESaIS2_EE19_M_get_Tp_allocatorEv
__ZNSt12_Vector_baseISt6vectorIcSaIcEESaIS2_EE19_M_get_Tp_allocatorEv:
LFB12859:
	sub	sp, sp, #16
LCFI121:
	str	x0, [sp, 8]
	ldr	x0, [sp, 8]
	add	sp, sp, 16
LCFI122:
	ret
LFE12859:
	.align	2
	.globl __ZSt8_DestroyIPSt6vectorIcSaIcEES2_EvT_S4_RSaIT0_E
	.weak_definition __ZSt8_DestroyIPSt6vectorIcSaIcEES2_EvT_S4_RSaIT0_E
__ZSt8_DestroyIPSt6vectorIcSaIcEES2_EvT_S4_RSaIT0_E:
LFB12860:
	stp	x29, x30, [sp, -48]!
LCFI123:
	mov	x29, sp
	str	x0, [sp, 40]
	str	x1, [sp, 32]
	str	x2, [sp, 24]
	ldr	x1, [sp, 32]
	ldr	x0, [sp, 40]
	bl	__ZSt8_DestroyIPSt6vectorIcSaIcEEEvT_S4_
	nop
	ldp	x29, x30, [sp], 48
LCFI124:
	ret
LFE12860:
	.align	2
	.globl __ZN9__gnu_cxx17__normal_iteratorIPcSt6vectorIcSaIcEEEC1ERKS1_
	.weak_definition __ZN9__gnu_cxx17__normal_iteratorIPcSt6vectorIcSaIcEEEC1ERKS1_
__ZN9__gnu_cxx17__normal_iteratorIPcSt6vectorIcSaIcEEEC1ERKS1_:
LFB12863:
	sub	sp, sp, #16
LCFI125:
	str	x0, [sp, 8]
	str	x1, [sp]
	ldr	x0, [sp]
	ldr	x1, [x0]
	ldr	x0, [sp, 8]
	str	x1, [x0]
	nop
	add	sp, sp, 16
LCFI126:
	ret
LFE12863:
	.align	2
	.globl __ZNSt7__cxx1112basic_stringIcSt11char_traitsIcESaIcEE12_M_constructIN9__gnu_cxx17__normal_iteratorIPcSt6vectorIcS3_EEEEEvT_SC_
	.weak_definition __ZNSt7__cxx1112basic_stringIcSt11char_traitsIcESaIcEE12_M_constructIN9__gnu_cxx17__normal_iteratorIPcSt6vectorIcS3_EEEEEvT_SC_
__ZNSt7__cxx1112basic_stringIcSt11char_traitsIcESaIcEE12_M_constructIN9__gnu_cxx17__normal_iteratorIPcSt6vectorIcS3_EEEEEvT_SC_:
LFB12864:
	stp	x29, x30, [sp, -48]!
LCFI127:
	mov	x29, sp
	str	x0, [sp, 40]
	str	x1, [sp, 32]
	str	x2, [sp, 24]
	ldr	x2, [sp, 24]
	ldr	x1, [sp, 32]
	ldr	x0, [sp, 40]
	bl	__ZNSt7__cxx1112basic_stringIcSt11char_traitsIcESaIcEE16_M_construct_auxIN9__gnu_cxx17__normal_iteratorIPcSt6vectorIcS3_EEEEEvT_SC_St12__false_type
	nop
	ldp	x29, x30, [sp], 48
LCFI128:
	ret
LFE12864:
	.align	2
	.globl __ZSt12__niter_baseIPcET_S1_
	.weak_definition __ZSt12__niter_baseIPcET_S1_
__ZSt12__niter_baseIPcET_S1_:
LFB12888:
	sub	sp, sp, #16
LCFI129:
	str	x0, [sp, 8]
	ldr	x0, [sp, 8]
	add	sp, sp, 16
LCFI130:
	ret
LFE12888:
	.align	2
	.globl __ZSt14__copy_move_a1ILb0EPKcPcET1_T0_S4_S3_
	.weak_definition __ZSt14__copy_move_a1ILb0EPKcPcET1_T0_S4_S3_
__ZSt14__copy_move_a1ILb0EPKcPcET1_T0_S4_S3_:
LFB12889:
	stp	x29, x30, [sp, -48]!
LCFI131:
	mov	x29, sp
	str	x0, [sp, 40]
	str	x1, [sp, 32]
	str	x2, [sp, 24]
	ldr	x2, [sp, 24]
	ldr	x1, [sp, 32]
	ldr	x0, [sp, 40]
	bl	__ZSt14__copy_move_a2ILb0EPKcPcET1_T0_S4_S3_
	ldp	x29, x30, [sp], 48
LCFI132:
	ret
LFE12889:
	.align	2
	.globl __ZSt12__niter_wrapIPcET_RKS1_S1_
	.weak_definition __ZSt12__niter_wrapIPcET_RKS1_S1_
__ZSt12__niter_wrapIPcET_RKS1_S1_:
LFB12890:
	sub	sp, sp, #16
LCFI133:
	str	x0, [sp, 8]
	str	x1, [sp]
	ldr	x0, [sp]
	add	sp, sp, 16
LCFI134:
	ret
LFE12890:
	.align	2
	.globl __ZSt8__fill_aIPccEvT_S1_RKT0_
	.weak_definition __ZSt8__fill_aIPccEvT_S1_RKT0_
__ZSt8__fill_aIPccEvT_S1_RKT0_:
LFB12891:
	stp	x29, x30, [sp, -48]!
LCFI135:
	mov	x29, sp
	str	x0, [sp, 40]
	str	x1, [sp, 32]
	str	x2, [sp, 24]
	ldr	x2, [sp, 24]
	ldr	x1, [sp, 32]
	ldr	x0, [sp, 40]
	bl	__ZSt9__fill_a1IcEN9__gnu_cxx11__enable_ifIXsrSt9__is_byteIT_E7__valueEvE6__typeEPS3_S7_RKS3_
	nop
	ldp	x29, x30, [sp], 48
LCFI136:
	ret
LFE12891:
	.align	2
	.globl __ZNSt14pointer_traitsIPcE10pointer_toERc
	.weak_definition __ZNSt14pointer_traitsIPcE10pointer_toERc
__ZNSt14pointer_traitsIPcE10pointer_toERc:
LFB12910:
	stp	x29, x30, [sp, -32]!
LCFI137:
	mov	x29, sp
	str	x0, [sp, 24]
	ldr	x0, [sp, 24]
	bl	__ZSt9addressofIcEPT_RS0_
	ldp	x29, x30, [sp], 32
LCFI138:
	ret
LFE12910:
	.cstring
	.align	3
lC3:
	.ascii "basic_string::_M_create\0"
	.text
	.align	2
	.globl __ZNSt7__cxx1112basic_stringIcSt11char_traitsIcESaIcEE9_M_createERmm
	.weak_definition __ZNSt7__cxx1112basic_stringIcSt11char_traitsIcESaIcEE9_M_createERmm
__ZNSt7__cxx1112basic_stringIcSt11char_traitsIcESaIcEE9_M_createERmm:
LFB12914:
	stp	x29, x30, [sp, -64]!
LCFI139:
	mov	x29, sp
	str	x19, [sp, 16]
LCFI140:
	str	x0, [sp, 56]
	str	x1, [sp, 48]
	str	x2, [sp, 40]
	ldr	x0, [sp, 48]
	ldr	x19, [x0]
	ldr	x0, [sp, 56]
	bl	__ZNKSt7__cxx1112basic_stringIcSt11char_traitsIcESaIcEE8max_sizeEv
	cmp	x19, x0
	cset	w0, hi
	and	w0, w0, 255
	cmp	w0, 0
	beq	L133
	adrp	x0, lC3@PAGE
	add	x0, x0, lC3@PAGEOFF;momd
	bl	__ZSt20__throw_length_errorPKc
L133:
	ldr	x0, [sp, 48]
	ldr	x0, [x0]
	ldr	x1, [sp, 40]
	cmp	x1, x0
	bcs	L134
	ldr	x0, [sp, 48]
	ldr	x1, [x0]
	ldr	x0, [sp, 40]
	lsl	x0, x0, 1
	cmp	x1, x0
	bcs	L134
	ldr	x0, [sp, 40]
	lsl	x1, x0, 1
	ldr	x0, [sp, 48]
	str	x1, [x0]
	ldr	x0, [sp, 48]
	ldr	x19, [x0]
	ldr	x0, [sp, 56]
	bl	__ZNKSt7__cxx1112basic_stringIcSt11char_traitsIcESaIcEE8max_sizeEv
	cmp	x19, x0
	cset	w0, hi
	and	w0, w0, 255
	cmp	w0, 0
	beq	L134
	ldr	x0, [sp, 56]
	bl	__ZNKSt7__cxx1112basic_stringIcSt11char_traitsIcESaIcEE8max_sizeEv
	mov	x1, x0
	ldr	x0, [sp, 48]
	str	x1, [x0]
L134:
	ldr	x0, [sp, 56]
	bl	__ZNSt7__cxx1112basic_stringIcSt11char_traitsIcESaIcEE16_M_get_allocatorEv
	mov	x2, x0
	ldr	x0, [sp, 48]
	ldr	x0, [x0]
	add	x0, x0, 1
	mov	x1, x0
	mov	x0, x2
	bl	__ZNSt16allocator_traitsISaIcEE8allocateERS0_m
	ldr	x19, [sp, 16]
	ldp	x29, x30, [sp], 64
LCFI141:
	ret
LFE12914:
	.align	2
	.globl __ZNKSt7__cxx1112basic_stringIcSt11char_traitsIcESaIcEE13_M_local_dataEv
	.weak_definition __ZNKSt7__cxx1112basic_stringIcSt11char_traitsIcESaIcEE13_M_local_dataEv
__ZNKSt7__cxx1112basic_stringIcSt11char_traitsIcESaIcEE13_M_local_dataEv:
LFB12916:
	stp	x29, x30, [sp, -32]!
LCFI142:
	mov	x29, sp
	str	x0, [sp, 24]
	ldr	x0, [sp, 24]
	add	x0, x0, 16
	bl	__ZNSt14pointer_traitsIPKcE10pointer_toERS0_
	ldp	x29, x30, [sp], 32
LCFI143:
	ret
LFE12916:
	.align	2
	.globl __ZNSt16allocator_traitsISaIcEE37select_on_container_copy_constructionERKS0_
	.weak_definition __ZNSt16allocator_traitsISaIcEE37select_on_container_copy_constructionERKS0_
__ZNSt16allocator_traitsISaIcEE37select_on_container_copy_constructionERKS0_:
LFB13054:
	stp	x29, x30, [sp, -48]!
LCFI144:
	mov	x29, sp
	str	x19, [sp, 16]
LCFI145:
	mov	x19, x8
	str	x0, [sp, 40]
	ldr	x1, [sp, 40]
	mov	x0, x19
	bl	__ZNSaIcEC1ERKS_
	mov	x0, x19
	ldr	x19, [sp, 16]
	ldp	x29, x30, [sp], 48
LCFI146:
	ret
LFE13054:
	.align	2
	.globl __ZNSt16allocator_traitsISaIcEE10deallocateERS0_Pcm
	.weak_definition __ZNSt16allocator_traitsISaIcEE10deallocateERS0_Pcm
__ZNSt16allocator_traitsISaIcEE10deallocateERS0_Pcm:
LFB13059:
	stp	x29, x30, [sp, -80]!
LCFI147:
	mov	x29, sp
	str	x0, [sp, 40]
	str	x1, [sp, 32]
	str	x2, [sp, 24]
	ldr	x0, [sp, 40]
	str	x0, [sp, 72]
	ldr	x0, [sp, 32]
	str	x0, [sp, 64]
	ldr	x0, [sp, 24]
	str	x0, [sp, 56]
	bl	__ZSt21is_constant_evaluatedv
	and	w0, w0, 255
	cmp	w0, 0
	beq	L141
	ldr	x0, [sp, 64]
	bl	__ZdlPv
	b	L142
L141:
	ldr	x2, [sp, 56]
	ldr	x1, [sp, 64]
	ldr	x0, [sp, 72]
	bl	__ZN9__gnu_cxx13new_allocatorIcE10deallocateEPcm
	nop
L142:
	nop
	ldp	x29, x30, [sp], 80
LCFI148:
	ret
LFE13059:
	.align	2
	.globl __ZNSt16allocator_traitsISaIcEE8max_sizeERKS0_
	.weak_definition __ZNSt16allocator_traitsISaIcEE8max_sizeERKS0_
__ZNSt16allocator_traitsISaIcEE8max_sizeERKS0_:
LFB13099:
	sub	sp, sp, #16
LCFI149:
	str	x0, [sp, 8]
	mov	x0, -1
	add	sp, sp, 16
LCFI150:
	ret
LFE13099:
	.align	2
	.globl __ZNSt6vectorIcSaIcEE11_S_max_sizeERKS0_
	.weak_definition __ZNSt6vectorIcSaIcEE11_S_max_sizeERKS0_
__ZNSt6vectorIcSaIcEE11_S_max_sizeERKS0_:
LFB13098:
	stp	x29, x30, [sp, -48]!
LCFI151:
	mov	x29, sp
	str	x0, [sp, 24]
	mov	x0, 9223372036854775807
	str	x0, [sp, 40]
	ldr	x0, [sp, 24]
	bl	__ZNSt16allocator_traitsISaIcEE8max_sizeERKS0_
	str	x0, [sp, 32]
	add	x1, sp, 32
	add	x0, sp, 40
	bl	__ZSt3minImERKT_S2_S2_
	ldr	x0, [x0]
	ldp	x29, x30, [sp], 48
LCFI152:
	ret
LFE13098:
	.align	2
	.globl __ZNSt12_Vector_baseIcSaIcEE12_Vector_implC1ERKS0_
	.weak_definition __ZNSt12_Vector_baseIcSaIcEE12_Vector_implC1ERKS0_
__ZNSt12_Vector_baseIcSaIcEE12_Vector_implC1ERKS0_:
LFB13102:
	stp	x29, x30, [sp, -32]!
LCFI153:
	mov	x29, sp
	str	x0, [sp, 24]
	str	x1, [sp, 16]
	ldr	x1, [sp, 16]
	ldr	x0, [sp, 24]
	bl	__ZNSaIcEC2ERKS_
	ldr	x0, [sp, 24]
	bl	__ZNSt12_Vector_baseIcSaIcEE17_Vector_impl_dataC2Ev
	nop
	ldp	x29, x30, [sp], 32
LCFI154:
	ret
LFE13102:
	.align	2
	.globl __ZNSt12_Vector_baseIcSaIcEE17_M_create_storageEm
	.weak_definition __ZNSt12_Vector_baseIcSaIcEE17_M_create_storageEm
__ZNSt12_Vector_baseIcSaIcEE17_M_create_storageEm:
LFB13103:
	stp	x29, x30, [sp, -32]!
LCFI155:
	mov	x29, sp
	str	x0, [sp, 24]
	str	x1, [sp, 16]
	ldr	x1, [sp, 16]
	ldr	x0, [sp, 24]
	bl	__ZNSt12_Vector_baseIcSaIcEE11_M_allocateEm
	mov	x1, x0
	ldr	x0, [sp, 24]
	str	x1, [x0]
	ldr	x0, [sp, 24]
	ldr	x1, [x0]
	ldr	x0, [sp, 24]
	str	x1, [x0, 8]
	ldr	x0, [sp, 24]
	ldr	x1, [x0]
	ldr	x0, [sp, 16]
	add	x1, x1, x0
	ldr	x0, [sp, 24]
	str	x1, [x0, 16]
	nop
	ldp	x29, x30, [sp], 32
LCFI156:
	ret
LFE13103:
	.align	2
	.globl __ZNSt12_Vector_baseIcSaIcEE13_M_deallocateEPcm
	.weak_definition __ZNSt12_Vector_baseIcSaIcEE13_M_deallocateEPcm
__ZNSt12_Vector_baseIcSaIcEE13_M_deallocateEPcm:
LFB13104:
	stp	x29, x30, [sp, -48]!
LCFI157:
	mov	x29, sp
	str	x0, [sp, 40]
	str	x1, [sp, 32]
	str	x2, [sp, 24]
	ldr	x0, [sp, 32]
	cmp	x0, 0
	beq	L151
	ldr	x0, [sp, 40]
	ldr	x2, [sp, 24]
	ldr	x1, [sp, 32]
	bl	__ZNSt16allocator_traitsISaIcEE10deallocateERS0_Pcm
L151:
	nop
	ldp	x29, x30, [sp], 48
LCFI158:
	ret
LFE13104:
	.align	2
	.globl __ZSt24__uninitialized_fill_n_aIPcmccET_S1_T0_RKT1_RSaIT2_E
	.weak_definition __ZSt24__uninitialized_fill_n_aIPcmccET_S1_T0_RKT1_RSaIT2_E
__ZSt24__uninitialized_fill_n_aIPcmccET_S1_T0_RKT1_RSaIT2_E:
LFB13105:
	stp	x29, x30, [sp, -48]!
LCFI159:
	mov	x29, sp
	str	x0, [sp, 40]
	str	x1, [sp, 32]
	str	x2, [sp, 24]
	str	x3, [sp, 16]
	ldr	x2, [sp, 24]
	ldr	x1, [sp, 32]
	ldr	x0, [sp, 40]
	bl	__ZSt20uninitialized_fill_nIPcmcET_S1_T0_RKT1_
	ldp	x29, x30, [sp], 48
LCFI160:
	ret
LFE13105:
	.align	2
	.globl __ZSt8_DestroyIPcEvT_S1_
	.weak_definition __ZSt8_DestroyIPcEvT_S1_
__ZSt8_DestroyIPcEvT_S1_:
LFB13106:
	stp	x29, x30, [sp, -32]!
LCFI161:
	mov	x29, sp
	str	x0, [sp, 24]
	str	x1, [sp, 16]
	bl	__ZSt21is_constant_evaluatedv
	and	w0, w0, 255
	cmp	w0, 0
	beq	L155
	ldr	x1, [sp, 16]
	ldr	x0, [sp, 24]
	bl	__ZNSt12_Destroy_auxILb0EE9__destroyIPcEEvT_S3_
	b	L154
L155:
	ldr	x1, [sp, 16]
	ldr	x0, [sp, 24]
	bl	__ZNSt12_Destroy_auxILb1EE9__destroyIPcEEvT_S3_
L154:
	ldp	x29, x30, [sp], 32
LCFI162:
	ret
LFE13106:
	.align	2
	.globl __ZNSt16allocator_traitsISaISt6vectorIcSaIcEEEE8max_sizeERKS3_
	.weak_definition __ZNSt16allocator_traitsISaISt6vectorIcSaIcEEEE8max_sizeERKS3_
__ZNSt16allocator_traitsISaISt6vectorIcSaIcEEEE8max_sizeERKS3_:
LFB13108:
	sub	sp, sp, #16
LCFI163:
	str	x0, [sp, 8]
	mov	x0, -6148914691236517206
	movk	x0, 0xaaa, lsl 48
	add	sp, sp, 16
LCFI164:
	ret
LFE13108:
	.align	2
	.globl __ZNSt6vectorIS_IcSaIcEESaIS1_EE11_S_max_sizeERKS2_
	.weak_definition __ZNSt6vectorIS_IcSaIcEESaIS1_EE11_S_max_sizeERKS2_
__ZNSt6vectorIS_IcSaIcEESaIS1_EE11_S_max_sizeERKS2_:
LFB13107:
	stp	x29, x30, [sp, -48]!
LCFI165:
	mov	x29, sp
	str	x0, [sp, 24]
	mov	x0, 6148914691236517205
	movk	x0, 0x555, lsl 48
	str	x0, [sp, 40]
	ldr	x0, [sp, 24]
	bl	__ZNSt16allocator_traitsISaISt6vectorIcSaIcEEEE8max_sizeERKS3_
	str	x0, [sp, 32]
	add	x1, sp, 32
	add	x0, sp, 40
	bl	__ZSt3minImERKT_S2_S2_
	ldr	x0, [x0]
	ldp	x29, x30, [sp], 48
LCFI166:
	ret
LFE13107:
	.align	2
	.globl __ZNSaISt6vectorIcSaIcEEEC2ERKS2_
	.weak_definition __ZNSaISt6vectorIcSaIcEEEC2ERKS2_
__ZNSaISt6vectorIcSaIcEEEC2ERKS2_:
LFB13110:
	stp	x29, x30, [sp, -32]!
LCFI167:
	mov	x29, sp
	str	x0, [sp, 24]
	str	x1, [sp, 16]
	ldr	x1, [sp, 16]
	ldr	x0, [sp, 24]
	bl	__ZN9__gnu_cxx13new_allocatorISt6vectorIcSaIcEEEC2ERKS4_
	nop
	ldp	x29, x30, [sp], 32
LCFI168:
	ret
LFE13110:
	.align	2
	.globl __ZNSaISt6vectorIcSaIcEEEC1ERKS2_
	.weak_definition __ZNSaISt6vectorIcSaIcEEEC1ERKS2_
__ZNSaISt6vectorIcSaIcEEEC1ERKS2_:
LFB13111:
	stp	x29, x30, [sp, -32]!
LCFI169:
	mov	x29, sp
	str	x0, [sp, 24]
	str	x1, [sp, 16]
	ldr	x1, [sp, 16]
	ldr	x0, [sp, 24]
	bl	__ZN9__gnu_cxx13new_allocatorISt6vectorIcSaIcEEEC2ERKS4_
	nop
	ldp	x29, x30, [sp], 32
LCFI170:
	ret
LFE13111:
	.align	2
	.globl __ZNSt12_Vector_baseISt6vectorIcSaIcEESaIS2_EE12_Vector_implC1ERKS3_
	.weak_definition __ZNSt12_Vector_baseISt6vectorIcSaIcEESaIS2_EE12_Vector_implC1ERKS3_
__ZNSt12_Vector_baseISt6vectorIcSaIcEESaIS2_EE12_Vector_implC1ERKS3_:
LFB13114:
	stp	x29, x30, [sp, -32]!
LCFI171:
	mov	x29, sp
	str	x0, [sp, 24]
	str	x1, [sp, 16]
	ldr	x1, [sp, 16]
	ldr	x0, [sp, 24]
	bl	__ZNSaISt6vectorIcSaIcEEEC2ERKS2_
	ldr	x0, [sp, 24]
	bl	__ZNSt12_Vector_baseISt6vectorIcSaIcEESaIS2_EE17_Vector_impl_dataC2Ev
	nop
	ldp	x29, x30, [sp], 32
LCFI172:
	ret
LFE13114:
	.align	2
	.globl __ZNSt12_Vector_baseISt6vectorIcSaIcEESaIS2_EE17_M_create_storageEm
	.weak_definition __ZNSt12_Vector_baseISt6vectorIcSaIcEESaIS2_EE17_M_create_storageEm
__ZNSt12_Vector_baseISt6vectorIcSaIcEESaIS2_EE17_M_create_storageEm:
LFB13115:
	stp	x29, x30, [sp, -32]!
LCFI173:
	mov	x29, sp
	str	x0, [sp, 24]
	str	x1, [sp, 16]
	ldr	x1, [sp, 16]
	ldr	x0, [sp, 24]
	bl	__ZNSt12_Vector_baseISt6vectorIcSaIcEESaIS2_EE11_M_allocateEm
	mov	x1, x0
	ldr	x0, [sp, 24]
	str	x1, [x0]
	ldr	x0, [sp, 24]
	ldr	x1, [x0]
	ldr	x0, [sp, 24]
	str	x1, [x0, 8]
	ldr	x0, [sp, 24]
	ldr	x2, [x0]
	ldr	x1, [sp, 16]
	mov	x0, x1
	lsl	x0, x0, 1
	add	x0, x0, x1
	lsl	x0, x0, 3
	add	x1, x2, x0
	ldr	x0, [sp, 24]
	str	x1, [x0, 16]
	nop
	ldp	x29, x30, [sp], 32
LCFI174:
	ret
LFE13115:
	.align	2
	.globl __ZNSt12_Vector_baseISt6vectorIcSaIcEESaIS2_EE13_M_deallocateEPS2_m
	.weak_definition __ZNSt12_Vector_baseISt6vectorIcSaIcEESaIS2_EE13_M_deallocateEPS2_m
__ZNSt12_Vector_baseISt6vectorIcSaIcEESaIS2_EE13_M_deallocateEPS2_m:
LFB13116:
	stp	x29, x30, [sp, -48]!
LCFI175:
	mov	x29, sp
	str	x0, [sp, 40]
	str	x1, [sp, 32]
	str	x2, [sp, 24]
	ldr	x0, [sp, 32]
	cmp	x0, 0
	beq	L167
	ldr	x0, [sp, 40]
	ldr	x2, [sp, 24]
	ldr	x1, [sp, 32]
	bl	__ZNSt16allocator_traitsISaISt6vectorIcSaIcEEEE10deallocateERS3_PS2_m
L167:
	nop
	ldp	x29, x30, [sp], 48
LCFI176:
	ret
LFE13116:
	.align	2
	.globl __ZSt24__uninitialized_fill_n_aIPSt6vectorIcSaIcEEmS2_S2_ET_S4_T0_RKT1_RSaIT2_E
	.weak_definition __ZSt24__uninitialized_fill_n_aIPSt6vectorIcSaIcEEmS2_S2_ET_S4_T0_RKT1_RSaIT2_E
__ZSt24__uninitialized_fill_n_aIPSt6vectorIcSaIcEEmS2_S2_ET_S4_T0_RKT1_RSaIT2_E:
LFB13117:
	stp	x29, x30, [sp, -48]!
LCFI177:
	mov	x29, sp
	str	x0, [sp, 40]
	str	x1, [sp, 32]
	str	x2, [sp, 24]
	str	x3, [sp, 16]
	ldr	x2, [sp, 24]
	ldr	x1, [sp, 32]
	ldr	x0, [sp, 40]
	bl	__ZSt20uninitialized_fill_nIPSt6vectorIcSaIcEEmS2_ET_S4_T0_RKT1_
	ldp	x29, x30, [sp], 48
LCFI178:
	ret
LFE13117:
	.align	2
	.globl __ZSt8_DestroyIPSt6vectorIcSaIcEEEvT_S4_
	.weak_definition __ZSt8_DestroyIPSt6vectorIcSaIcEEEvT_S4_
__ZSt8_DestroyIPSt6vectorIcSaIcEEEvT_S4_:
LFB13118:
	stp	x29, x30, [sp, -32]!
LCFI179:
	mov	x29, sp
	str	x0, [sp, 24]
	str	x1, [sp, 16]
	bl	__ZSt21is_constant_evaluatedv
	and	w0, w0, 255
	cmp	w0, 0
	beq	L171
	ldr	x1, [sp, 16]
	ldr	x0, [sp, 24]
	bl	__ZNSt12_Destroy_auxILb0EE9__destroyIPSt6vectorIcSaIcEEEEvT_S6_
	b	L170
L171:
	ldr	x1, [sp, 16]
	ldr	x0, [sp, 24]
	bl	__ZNSt12_Destroy_auxILb0EE9__destroyIPSt6vectorIcSaIcEEEEvT_S6_
L170:
	ldp	x29, x30, [sp], 32
LCFI180:
	ret
LFE13118:
	.align	2
	.globl __ZNSt7__cxx1112basic_stringIcSt11char_traitsIcESaIcEE16_M_construct_auxIN9__gnu_cxx17__normal_iteratorIPcSt6vectorIcS3_EEEEEvT_SC_St12__false_type
	.weak_definition __ZNSt7__cxx1112basic_stringIcSt11char_traitsIcESaIcEE16_M_construct_auxIN9__gnu_cxx17__normal_iteratorIPcSt6vectorIcS3_EEEEEvT_SC_St12__false_type
__ZNSt7__cxx1112basic_stringIcSt11char_traitsIcESaIcEE16_M_construct_auxIN9__gnu_cxx17__normal_iteratorIPcSt6vectorIcS3_EEEEEvT_SC_St12__false_type:
LFB13120:
	stp	x29, x30, [sp, -64]!
LCFI181:
	mov	x29, sp
	str	x0, [sp, 40]
	str	x1, [sp, 32]
	str	x2, [sp, 24]
	strb	w3, [sp, 16]
	mov	w3, w4
	ldr	x2, [sp, 24]
	ldr	x1, [sp, 32]
	ldr	x0, [sp, 40]
	bl	__ZNSt7__cxx1112basic_stringIcSt11char_traitsIcESaIcEE12_M_constructIN9__gnu_cxx17__normal_iteratorIPcSt6vectorIcS3_EEEEEvT_SC_St20forward_iterator_tag
	nop
	ldp	x29, x30, [sp], 64
LCFI182:
	ret
LFE13120:
	.align	2
	.globl __ZSt14__copy_move_a2ILb0EPKcPcET1_T0_S4_S3_
	.weak_definition __ZSt14__copy_move_a2ILb0EPKcPcET1_T0_S4_S3_
__ZSt14__copy_move_a2ILb0EPKcPcET1_T0_S4_S3_:
LFB13132:
	stp	x29, x30, [sp, -48]!
LCFI183:
	mov	x29, sp
	str	x0, [sp, 40]
	str	x1, [sp, 32]
	str	x2, [sp, 24]
	bl	__ZSt21is_constant_evaluatedv
	and	w0, w0, 255
	cmp	w0, 0
	beq	L175
	ldr	x2, [sp, 24]
	ldr	x1, [sp, 32]
	ldr	x0, [sp, 40]
	bl	__ZNSt11__copy_moveILb0ELb0ESt26random_access_iterator_tagE8__copy_mIPKcPcEET0_T_S7_S6_
	b	L176
L175:
	ldr	x2, [sp, 24]
	ldr	x1, [sp, 32]
	ldr	x0, [sp, 40]
	bl	__ZNSt11__copy_moveILb0ELb1ESt26random_access_iterator_tagE8__copy_mIcEEPT_PKS3_S6_S4_
	nop
L176:
	ldp	x29, x30, [sp], 48
LCFI184:
	ret
LFE13132:
	.align	2
	.globl __ZSt9__fill_a1IcEN9__gnu_cxx11__enable_ifIXsrSt9__is_byteIT_E7__valueEvE6__typeEPS3_S7_RKS3_
	.weak_definition __ZSt9__fill_a1IcEN9__gnu_cxx11__enable_ifIXsrSt9__is_byteIT_E7__valueEvE6__typeEPS3_S7_RKS3_
__ZSt9__fill_a1IcEN9__gnu_cxx11__enable_ifIXsrSt9__is_byteIT_E7__valueEvE6__typeEPS3_S7_RKS3_:
LFB13133:
	stp	x29, x30, [sp, -64]!
LCFI185:
	mov	x29, sp
	str	x0, [sp, 40]
	str	x1, [sp, 32]
	str	x2, [sp, 24]
	ldr	x0, [sp, 24]
	ldrb	w0, [x0]
	strb	w0, [sp, 63]
	bl	__ZSt21is_constant_evaluatedv
	and	w0, w0, 255
	cmp	w0, 0
	beq	L178
	b	L179
L180:
	ldr	x0, [sp, 40]
	ldrb	w1, [sp, 63]
	strb	w1, [x0]
	ldr	x0, [sp, 40]
	add	x0, x0, 1
	str	x0, [sp, 40]
L179:
	ldr	x1, [sp, 40]
	ldr	x0, [sp, 32]
	cmp	x1, x0
	bne	L180
	b	L177
L178:
	ldr	x1, [sp, 32]
	ldr	x0, [sp, 40]
	sub	x0, x1, x0
	str	x0, [sp, 48]
	ldr	x0, [sp, 48]
	cmp	x0, 0
	beq	L177
	ldrb	w0, [sp, 63]
	ldr	x2, [sp, 48]
	mov	w1, w0
	ldr	x0, [sp, 40]
	bl	_memset
L177:
	ldp	x29, x30, [sp], 64
LCFI186:
	ret
LFE13133:
	.align	2
	.globl __ZSt9addressofIcEPT_RS0_
	.weak_definition __ZSt9addressofIcEPT_RS0_
__ZSt9addressofIcEPT_RS0_:
LFB13140:
	stp	x29, x30, [sp, -32]!
LCFI187:
	mov	x29, sp
	str	x0, [sp, 24]
	ldr	x0, [sp, 24]
	bl	__ZSt11__addressofIcEPT_RS0_
	ldp	x29, x30, [sp], 32
LCFI188:
	ret
LFE13140:
	.align	2
	.globl __ZNKSt7__cxx1112basic_stringIcSt11char_traitsIcESaIcEE8max_sizeEv
	.weak_definition __ZNKSt7__cxx1112basic_stringIcSt11char_traitsIcESaIcEE8max_sizeEv
__ZNKSt7__cxx1112basic_stringIcSt11char_traitsIcESaIcEE8max_sizeEv:
LFB13144:
	stp	x29, x30, [sp, -32]!
LCFI189:
	mov	x29, sp
	str	x0, [sp, 24]
	ldr	x0, [sp, 24]
	bl	__ZNKSt7__cxx1112basic_stringIcSt11char_traitsIcESaIcEE16_M_get_allocatorEv
	bl	__ZNSt16allocator_traitsISaIcEE8max_sizeERKS0_
	sub	x0, x0, #1
	lsr	x0, x0, 1
	ldp	x29, x30, [sp], 32
LCFI190:
	ret
LFE13144:
	.align	2
	.globl __ZNSt14pointer_traitsIPKcE10pointer_toERS0_
	.weak_definition __ZNSt14pointer_traitsIPKcE10pointer_toERS0_
__ZNSt14pointer_traitsIPKcE10pointer_toERS0_:
LFB13145:
	stp	x29, x30, [sp, -32]!
LCFI191:
	mov	x29, sp
	str	x0, [sp, 24]
	ldr	x0, [sp, 24]
	bl	__ZSt9addressofIKcEPT_RS1_
	ldp	x29, x30, [sp], 32
LCFI192:
	ret
LFE13145:
	.align	2
	.globl __ZNK9__gnu_cxx13new_allocatorIcE11_M_max_sizeEv
	.weak_definition __ZNK9__gnu_cxx13new_allocatorIcE11_M_max_sizeEv
__ZNK9__gnu_cxx13new_allocatorIcE11_M_max_sizeEv:
LFB13249:
	sub	sp, sp, #16
LCFI193:
	str	x0, [sp, 8]
	mov	x0, 9223372036854775807
	add	sp, sp, 16
LCFI194:
	ret
LFE13249:
	.align	2
	.globl __ZN9__gnu_cxx13new_allocatorIcE8allocateEmPKv
	.weak_definition __ZN9__gnu_cxx13new_allocatorIcE8allocateEmPKv
__ZN9__gnu_cxx13new_allocatorIcE8allocateEmPKv:
LFB13248:
	stp	x29, x30, [sp, -48]!
LCFI195:
	mov	x29, sp
	str	x0, [sp, 40]
	str	x1, [sp, 32]
	str	x2, [sp, 24]
	ldr	x0, [sp, 40]
	bl	__ZNK9__gnu_cxx13new_allocatorIcE11_M_max_sizeEv
	mov	x1, x0
	ldr	x0, [sp, 32]
	cmp	x0, x1
	cset	w0, hi
	and	w0, w0, 255
	and	x0, x0, 255
	cmp	x0, 0
	cset	w0, ne
	and	w0, w0, 255
	cmp	w0, 0
	beq	L191
	bl	__ZSt17__throw_bad_allocv
L191:
	ldr	x0, [sp, 32]
	bl	__Znwm
	nop
	ldp	x29, x30, [sp], 48
LCFI196:
	ret
LFE13248:
	.align	2
	.globl __ZNSt12_Vector_baseIcSaIcEE17_Vector_impl_dataC2Ev
	.weak_definition __ZNSt12_Vector_baseIcSaIcEE17_Vector_impl_dataC2Ev
__ZNSt12_Vector_baseIcSaIcEE17_Vector_impl_dataC2Ev:
LFB13284:
	sub	sp, sp, #16
LCFI197:
	str	x0, [sp, 8]
	ldr	x0, [sp, 8]
	str	xzr, [x0]
	ldr	x0, [sp, 8]
	str	xzr, [x0, 8]
	ldr	x0, [sp, 8]
	str	xzr, [x0, 16]
	nop
	add	sp, sp, 16
LCFI198:
	ret
LFE13284:
	.align	2
	.globl __ZNSt12_Vector_baseIcSaIcEE11_M_allocateEm
	.weak_definition __ZNSt12_Vector_baseIcSaIcEE11_M_allocateEm
__ZNSt12_Vector_baseIcSaIcEE11_M_allocateEm:
LFB13286:
	stp	x29, x30, [sp, -32]!
LCFI199:
	mov	x29, sp
	str	x0, [sp, 24]
	str	x1, [sp, 16]
	ldr	x0, [sp, 16]
	cmp	x0, 0
	beq	L195
	ldr	x0, [sp, 24]
	ldr	x1, [sp, 16]
	bl	__ZNSt16allocator_traitsISaIcEE8allocateERS0_m
	b	L197
L195:
	mov	x0, 0
L197:
	ldp	x29, x30, [sp], 32
LCFI200:
	ret
LFE13286:
	.align	2
	.globl __ZSt20uninitialized_fill_nIPcmcET_S1_T0_RKT1_
	.weak_definition __ZSt20uninitialized_fill_nIPcmcET_S1_T0_RKT1_
__ZSt20uninitialized_fill_nIPcmcET_S1_T0_RKT1_:
LFB13287:
	stp	x29, x30, [sp, -64]!
LCFI201:
	mov	x29, sp
	str	x0, [sp, 40]
	str	x1, [sp, 32]
	str	x2, [sp, 24]
	mov	w0, 1
	strb	w0, [sp, 63]
	ldr	x2, [sp, 24]
	ldr	x1, [sp, 32]
	ldr	x0, [sp, 40]
	bl	__ZNSt22__uninitialized_fill_nILb1EE15__uninit_fill_nIPcmcEET_S3_T0_RKT1_
	ldp	x29, x30, [sp], 64
LCFI202:
	ret
LFE13287:
	.align	2
	.globl __ZNSt12_Destroy_auxILb0EE9__destroyIPcEEvT_S3_
	.weak_definition __ZNSt12_Destroy_auxILb0EE9__destroyIPcEEvT_S3_
__ZNSt12_Destroy_auxILb0EE9__destroyIPcEEvT_S3_:
LFB13288:
	stp	x29, x30, [sp, -32]!
LCFI203:
	mov	x29, sp
	str	x0, [sp, 24]
	str	x1, [sp, 16]
	b	L201
L202:
	ldr	x0, [sp, 24]
	bl	__ZSt11__addressofIcEPT_RS0_
	bl	__ZSt8_DestroyIcEvPT_
	ldr	x0, [sp, 24]
	add	x0, x0, 1
	str	x0, [sp, 24]
L201:
	ldr	x1, [sp, 24]
	ldr	x0, [sp, 16]
	cmp	x1, x0
	bne	L202
	nop
	nop
	ldp	x29, x30, [sp], 32
LCFI204:
	ret
LFE13288:
	.align	2
	.globl __ZNSt12_Destroy_auxILb1EE9__destroyIPcEEvT_S3_
	.weak_definition __ZNSt12_Destroy_auxILb1EE9__destroyIPcEEvT_S3_
__ZNSt12_Destroy_auxILb1EE9__destroyIPcEEvT_S3_:
LFB13289:
	sub	sp, sp, #16
LCFI205:
	str	x0, [sp, 8]
	str	x1, [sp]
	nop
	add	sp, sp, 16
LCFI206:
	ret
LFE13289:
	.align	2
	.globl __ZN9__gnu_cxx13new_allocatorISt6vectorIcSaIcEEEC2ERKS4_
	.weak_definition __ZN9__gnu_cxx13new_allocatorISt6vectorIcSaIcEEEC2ERKS4_
__ZN9__gnu_cxx13new_allocatorISt6vectorIcSaIcEEEC2ERKS4_:
LFB13291:
	sub	sp, sp, #16
LCFI207:
	str	x0, [sp, 8]
	str	x1, [sp]
	nop
	add	sp, sp, 16
LCFI208:
	ret
LFE13291:
	.align	2
	.globl __ZNSt12_Vector_baseISt6vectorIcSaIcEESaIS2_EE17_Vector_impl_dataC2Ev
	.weak_definition __ZNSt12_Vector_baseISt6vectorIcSaIcEESaIS2_EE17_Vector_impl_dataC2Ev
__ZNSt12_Vector_baseISt6vectorIcSaIcEESaIS2_EE17_Vector_impl_dataC2Ev:
LFB13294:
	sub	sp, sp, #16
LCFI209:
	str	x0, [sp, 8]
	ldr	x0, [sp, 8]
	str	xzr, [x0]
	ldr	x0, [sp, 8]
	str	xzr, [x0, 8]
	ldr	x0, [sp, 8]
	str	xzr, [x0, 16]
	nop
	add	sp, sp, 16
LCFI210:
	ret
LFE13294:
	.align	2
	.globl __ZNSt12_Vector_baseISt6vectorIcSaIcEESaIS2_EE11_M_allocateEm
	.weak_definition __ZNSt12_Vector_baseISt6vectorIcSaIcEESaIS2_EE11_M_allocateEm
__ZNSt12_Vector_baseISt6vectorIcSaIcEESaIS2_EE11_M_allocateEm:
LFB13296:
	stp	x29, x30, [sp, -32]!
LCFI211:
	mov	x29, sp
	str	x0, [sp, 24]
	str	x1, [sp, 16]
	ldr	x0, [sp, 16]
	cmp	x0, 0
	beq	L207
	ldr	x0, [sp, 24]
	ldr	x1, [sp, 16]
	bl	__ZNSt16allocator_traitsISaISt6vectorIcSaIcEEEE8allocateERS3_m
	b	L209
L207:
	mov	x0, 0
L209:
	ldp	x29, x30, [sp], 32
LCFI212:
	ret
LFE13296:
	.align	2
	.globl __ZNSt16allocator_traitsISaISt6vectorIcSaIcEEEE10deallocateERS3_PS2_m
	.weak_definition __ZNSt16allocator_traitsISaISt6vectorIcSaIcEEEE10deallocateERS3_PS2_m
__ZNSt16allocator_traitsISaISt6vectorIcSaIcEEEE10deallocateERS3_PS2_m:
LFB13297:
	stp	x29, x30, [sp, -80]!
LCFI213:
	mov	x29, sp
	str	x0, [sp, 40]
	str	x1, [sp, 32]
	str	x2, [sp, 24]
	ldr	x0, [sp, 40]
	str	x0, [sp, 72]
	ldr	x0, [sp, 32]
	str	x0, [sp, 64]
	ldr	x0, [sp, 24]
	str	x0, [sp, 56]
	bl	__ZSt21is_constant_evaluatedv
	and	w0, w0, 255
	cmp	w0, 0
	beq	L211
	ldr	x0, [sp, 64]
	bl	__ZdlPv
	b	L212
L211:
	ldr	x2, [sp, 56]
	ldr	x1, [sp, 64]
	ldr	x0, [sp, 72]
	bl	__ZN9__gnu_cxx13new_allocatorISt6vectorIcSaIcEEE10deallocateEPS3_m
	nop
L212:
	nop
	ldp	x29, x30, [sp], 80
LCFI214:
	ret
LFE13297:
	.align	2
	.globl __ZSt20uninitialized_fill_nIPSt6vectorIcSaIcEEmS2_ET_S4_T0_RKT1_
	.weak_definition __ZSt20uninitialized_fill_nIPSt6vectorIcSaIcEEmS2_ET_S4_T0_RKT1_
__ZSt20uninitialized_fill_nIPSt6vectorIcSaIcEEmS2_ET_S4_T0_RKT1_:
LFB13298:
	stp	x29, x30, [sp, -64]!
LCFI215:
	mov	x29, sp
	str	x0, [sp, 40]
	str	x1, [sp, 32]
	str	x2, [sp, 24]
	mov	w0, 1
	strb	w0, [sp, 63]
	ldr	x2, [sp, 24]
	ldr	x1, [sp, 32]
	ldr	x0, [sp, 40]
	bl	__ZNSt22__uninitialized_fill_nILb0EE15__uninit_fill_nIPSt6vectorIcSaIcEEmS4_EET_S6_T0_RKT1_
	ldp	x29, x30, [sp], 64
LCFI216:
	ret
LFE13298:
	.align	2
	.globl __ZNSt12_Destroy_auxILb0EE9__destroyIPSt6vectorIcSaIcEEEEvT_S6_
	.weak_definition __ZNSt12_Destroy_auxILb0EE9__destroyIPSt6vectorIcSaIcEEEEvT_S6_
__ZNSt12_Destroy_auxILb0EE9__destroyIPSt6vectorIcSaIcEEEEvT_S6_:
LFB13299:
	stp	x29, x30, [sp, -32]!
LCFI217:
	mov	x29, sp
	str	x0, [sp, 24]
	str	x1, [sp, 16]
	b	L216
L217:
	ldr	x0, [sp, 24]
	bl	__ZSt11__addressofISt6vectorIcSaIcEEEPT_RS3_
	bl	__ZSt8_DestroyISt6vectorIcSaIcEEEvPT_
	ldr	x0, [sp, 24]
	add	x0, x0, 24
	str	x0, [sp, 24]
L216:
	ldr	x1, [sp, 24]
	ldr	x0, [sp, 16]
	cmp	x1, x0
	bne	L217
	nop
	nop
	ldp	x29, x30, [sp], 32
LCFI218:
	ret
LFE13299:
	.align	2
	.globl __ZNK9__gnu_cxx17__normal_iteratorIPcSt6vectorIcSaIcEEE4baseEv
	.weak_definition __ZNK9__gnu_cxx17__normal_iteratorIPcSt6vectorIcSaIcEEE4baseEv
__ZNK9__gnu_cxx17__normal_iteratorIPcSt6vectorIcSaIcEEE4baseEv:
LFB13301:
	sub	sp, sp, #16
LCFI219:
	str	x0, [sp, 8]
	ldr	x0, [sp, 8]
	add	sp, sp, 16
LCFI220:
	ret
LFE13301:
	.align	2
	.globl __ZSt8distanceIN9__gnu_cxx17__normal_iteratorIPcSt6vectorIcSaIcEEEEENSt15iterator_traitsIT_E15difference_typeES8_S8_
	.weak_definition __ZSt8distanceIN9__gnu_cxx17__normal_iteratorIPcSt6vectorIcSaIcEEEEENSt15iterator_traitsIT_E15difference_typeES8_S8_
__ZSt8distanceIN9__gnu_cxx17__normal_iteratorIPcSt6vectorIcSaIcEEEEENSt15iterator_traitsIT_E15difference_typeES8_S8_:
LFB13302:
	stp	x29, x30, [sp, -48]!
LCFI221:
	mov	x29, sp
	str	x19, [sp, 16]
LCFI222:
	str	x0, [sp, 40]
	str	x1, [sp, 32]
	add	x0, sp, 40
	bl	__ZSt19__iterator_categoryIN9__gnu_cxx17__normal_iteratorIPcSt6vectorIcSaIcEEEEENSt15iterator_traitsIT_E17iterator_categoryERKS8_
	mov	w2, w19
	ldr	x1, [sp, 32]
	ldr	x0, [sp, 40]
	bl	__ZSt10__distanceIN9__gnu_cxx17__normal_iteratorIPcSt6vectorIcSaIcEEEEENSt15iterator_traitsIT_E15difference_typeES8_S8_St26random_access_iterator_tag
	ldr	x19, [sp, 16]
	ldp	x29, x30, [sp], 48
LCFI223:
	ret
LFE13302:
	.cstring
	.align	3
lC4:
	.ascii "basic_string::_M_construct null not valid\0"
	.text
	.align	2
	.globl __ZNSt7__cxx1112basic_stringIcSt11char_traitsIcESaIcEE12_M_constructIN9__gnu_cxx17__normal_iteratorIPcSt6vectorIcS3_EEEEEvT_SC_St20forward_iterator_tag
	.weak_definition __ZNSt7__cxx1112basic_stringIcSt11char_traitsIcESaIcEE12_M_constructIN9__gnu_cxx17__normal_iteratorIPcSt6vectorIcS3_EEEEEvT_SC_St20forward_iterator_tag
__ZNSt7__cxx1112basic_stringIcSt11char_traitsIcESaIcEE12_M_constructIN9__gnu_cxx17__normal_iteratorIPcSt6vectorIcS3_EEEEEvT_SC_St20forward_iterator_tag:
LFB13300:
	stp	x29, x30, [sp, -64]!
LCFI224:
	mov	x29, sp
	str	x0, [sp, 40]
	str	x1, [sp, 32]
	str	x2, [sp, 24]
	strb	w3, [sp, 16]
	ldr	x0, [sp, 32]
	bl	__ZN9__gnu_cxx17__is_null_pointerINS_17__normal_iteratorIPcSt6vectorIcSaIcEEEEEEbT_
	and	w0, w0, 255
	cmp	w0, 0
	beq	L223
	add	x1, sp, 24
	add	x0, sp, 32
	bl	__ZN9__gnu_cxxeqIPcS1_St6vectorIcSaIcEEEEbRKNS_17__normal_iteratorIT_T1_EERKNS5_IT0_S7_EE
	and	w0, w0, 255
	eor	w0, w0, 1
	and	w0, w0, 255
	cmp	w0, 0
	beq	L223
	mov	w0, 1
	b	L224
L223:
	mov	w0, 0
L224:
	cmp	w0, 0
	beq	L225
	adrp	x0, lC4@PAGE
	add	x0, x0, lC4@PAGEOFF;momd
	bl	__ZSt19__throw_logic_errorPKc
L225:
	ldr	x1, [sp, 24]
	ldr	x0, [sp, 32]
	bl	__ZSt8distanceIN9__gnu_cxx17__normal_iteratorIPcSt6vectorIcSaIcEEEEENSt15iterator_traitsIT_E15difference_typeES8_S8_
	str	x0, [sp, 56]
	ldr	x0, [sp, 56]
	cmp	x0, 15
	bls	L226
	add	x0, sp, 56
	mov	x2, 0
	mov	x1, x0
	ldr	x0, [sp, 40]
	bl	__ZNSt7__cxx1112basic_stringIcSt11char_traitsIcESaIcEE9_M_createERmm
	mov	x1, x0
	ldr	x0, [sp, 40]
	bl	__ZNSt7__cxx1112basic_stringIcSt11char_traitsIcESaIcEE7_M_dataEPc
	ldr	x0, [sp, 56]
	mov	x1, x0
	ldr	x0, [sp, 40]
	bl	__ZNSt7__cxx1112basic_stringIcSt11char_traitsIcESaIcEE11_M_capacityEm
L226:
	ldr	x0, [sp, 40]
	bl	__ZNKSt7__cxx1112basic_stringIcSt11char_traitsIcESaIcEE7_M_dataEv
	ldr	x2, [sp, 24]
	ldr	x1, [sp, 32]
	bl	__ZNSt7__cxx1112basic_stringIcSt11char_traitsIcESaIcEE13_S_copy_charsIN9__gnu_cxx17__normal_iteratorIPcSt6vectorIcS3_EEEEEvS8_T_SC_
	ldr	x0, [sp, 56]
	mov	x1, x0
	ldr	x0, [sp, 40]
	bl	__ZNSt7__cxx1112basic_stringIcSt11char_traitsIcESaIcEE13_M_set_lengthEm
	nop
	ldp	x29, x30, [sp], 64
LCFI225:
	ret
LFE13300:
	.align	2
	.globl __ZNSt11__copy_moveILb0ELb0ESt26random_access_iterator_tagE8__copy_mIPKcPcEET0_T_S7_S6_
	.weak_definition __ZNSt11__copy_moveILb0ELb0ESt26random_access_iterator_tagE8__copy_mIPKcPcEET0_T_S7_S6_
__ZNSt11__copy_moveILb0ELb0ESt26random_access_iterator_tagE8__copy_mIPKcPcEET0_T_S7_S6_:
LFB13303:
	sub	sp, sp, #48
LCFI226:
	str	x0, [sp, 24]
	str	x1, [sp, 16]
	str	x2, [sp, 8]
	ldr	x1, [sp, 16]
	ldr	x0, [sp, 24]
	sub	x0, x1, x0
	str	x0, [sp, 40]
	b	L228
L229:
	ldr	x0, [sp, 24]
	ldrsb	w1, [x0]
	ldr	x0, [sp, 8]
	strb	w1, [x0]
	ldr	x0, [sp, 24]
	add	x0, x0, 1
	str	x0, [sp, 24]
	ldr	x0, [sp, 8]
	add	x0, x0, 1
	str	x0, [sp, 8]
	ldr	x0, [sp, 40]
	sub	x0, x0, #1
	str	x0, [sp, 40]
L228:
	ldr	x0, [sp, 40]
	cmp	x0, 0
	bgt	L229
	ldr	x0, [sp, 8]
	add	sp, sp, 48
LCFI227:
	ret
LFE13303:
	.align	2
	.globl __ZNSt11__copy_moveILb0ELb1ESt26random_access_iterator_tagE8__copy_mIcEEPT_PKS3_S6_S4_
	.weak_definition __ZNSt11__copy_moveILb0ELb1ESt26random_access_iterator_tagE8__copy_mIcEEPT_PKS3_S6_S4_
__ZNSt11__copy_moveILb0ELb1ESt26random_access_iterator_tagE8__copy_mIcEEPT_PKS3_S6_S4_:
LFB13304:
	stp	x29, x30, [sp, -64]!
LCFI228:
	mov	x29, sp
	str	x0, [sp, 40]
	str	x1, [sp, 32]
	str	x2, [sp, 24]
	ldr	x1, [sp, 32]
	ldr	x0, [sp, 40]
	sub	x0, x1, x0
	str	x0, [sp, 56]
	ldr	x0, [sp, 56]
	cmp	x0, 0
	beq	L232
	ldr	x0, [sp, 56]
	mov	x2, x0
	ldr	x1, [sp, 40]
	ldr	x0, [sp, 24]
	bl	_memmove
L232:
	ldr	x0, [sp, 56]
	ldr	x1, [sp, 24]
	add	x0, x1, x0
	ldp	x29, x30, [sp], 64
LCFI229:
	ret
LFE13304:
	.align	2
	.globl __ZSt11__addressofIcEPT_RS0_
	.weak_definition __ZSt11__addressofIcEPT_RS0_
__ZSt11__addressofIcEPT_RS0_:
LFB13313:
	sub	sp, sp, #16
LCFI230:
	str	x0, [sp, 8]
	ldr	x0, [sp, 8]
	add	sp, sp, 16
LCFI231:
	ret
LFE13313:
	.align	2
	.globl __ZSt9addressofIKcEPT_RS1_
	.weak_definition __ZSt9addressofIKcEPT_RS1_
__ZSt9addressofIKcEPT_RS1_:
LFB13314:
	stp	x29, x30, [sp, -32]!
LCFI232:
	mov	x29, sp
	str	x0, [sp, 24]
	ldr	x0, [sp, 24]
	bl	__ZSt11__addressofIKcEPT_RS1_
	ldp	x29, x30, [sp], 32
LCFI233:
	ret
LFE13314:
	.align	2
	.globl __ZN9__gnu_cxx13new_allocatorIcE10deallocateEPcm
	.weak_definition __ZN9__gnu_cxx13new_allocatorIcE10deallocateEPcm
__ZN9__gnu_cxx13new_allocatorIcE10deallocateEPcm:
LFB13411:
	stp	x29, x30, [sp, -48]!
LCFI234:
	mov	x29, sp
	str	x0, [sp, 40]
	str	x1, [sp, 32]
	str	x2, [sp, 24]
	ldr	x1, [sp, 24]
	ldr	x0, [sp, 32]
	bl	__ZdlPvm
	ldp	x29, x30, [sp], 48
LCFI235:
	ret
LFE13411:
	.align	2
	.globl __ZNSt22__uninitialized_fill_nILb1EE15__uninit_fill_nIPcmcEET_S3_T0_RKT1_
	.weak_definition __ZNSt22__uninitialized_fill_nILb1EE15__uninit_fill_nIPcmcEET_S3_T0_RKT1_
__ZNSt22__uninitialized_fill_nILb1EE15__uninit_fill_nIPcmcEET_S3_T0_RKT1_:
LFB13423:
	stp	x29, x30, [sp, -48]!
LCFI236:
	mov	x29, sp
	str	x0, [sp, 40]
	str	x1, [sp, 32]
	str	x2, [sp, 24]
	ldr	x2, [sp, 24]
	ldr	x1, [sp, 32]
	ldr	x0, [sp, 40]
	bl	__ZSt6fill_nIPcmcET_S1_T0_RKT1_
	ldp	x29, x30, [sp], 48
LCFI237:
	ret
LFE13423:
	.align	2
	.globl __ZSt8_DestroyIcEvPT_
	.weak_definition __ZSt8_DestroyIcEvPT_
__ZSt8_DestroyIcEvPT_:
LFB13424:
	stp	x29, x30, [sp, -32]!
LCFI238:
	mov	x29, sp
	str	x0, [sp, 24]
	ldr	x0, [sp, 24]
	bl	__ZSt10destroy_atIcEvPT_
	nop
	ldp	x29, x30, [sp], 32
LCFI239:
	ret
LFE13424:
	.align	2
	.globl __ZNSt16allocator_traitsISaISt6vectorIcSaIcEEEE8allocateERS3_m
	.weak_definition __ZNSt16allocator_traitsISaISt6vectorIcSaIcEEEE8allocateERS3_m
__ZNSt16allocator_traitsISaISt6vectorIcSaIcEEEE8allocateERS3_m:
LFB13425:
	stp	x29, x30, [sp, -48]!
LCFI240:
	mov	x29, sp
	str	x0, [sp, 24]
	str	x1, [sp, 16]
	ldr	x0, [sp, 24]
	str	x0, [sp, 40]
	ldr	x0, [sp, 16]
	str	x0, [sp, 32]
	bl	__ZSt21is_constant_evaluatedv
	and	w0, w0, 255
	cmp	w0, 0
	beq	L244
	ldr	x1, [sp, 32]
	mov	x0, x1
	lsl	x0, x0, 1
	add	x0, x0, x1
	lsl	x0, x0, 3
	bl	__Znwm
	b	L245
L244:
	mov	x2, 0
	ldr	x1, [sp, 32]
	ldr	x0, [sp, 40]
	bl	__ZN9__gnu_cxx13new_allocatorISt6vectorIcSaIcEEE8allocateEmPKv
	nop
L245:
	ldp	x29, x30, [sp], 48
LCFI241:
	ret
LFE13425:
	.align	2
	.globl __ZNSt22__uninitialized_fill_nILb0EE15__uninit_fill_nIPSt6vectorIcSaIcEEmS4_EET_S6_T0_RKT1_
	.weak_definition __ZNSt22__uninitialized_fill_nILb0EE15__uninit_fill_nIPSt6vectorIcSaIcEEmS4_EET_S6_T0_RKT1_
__ZNSt22__uninitialized_fill_nILb0EE15__uninit_fill_nIPSt6vectorIcSaIcEEmS4_EET_S6_T0_RKT1_:
LFB13427:
	stp	x29, x30, [sp, -80]!
LCFI242:
	mov	x29, sp
	str	x19, [sp, 16]
LCFI243:
	str	x0, [sp, 56]
	str	x1, [sp, 48]
	str	x2, [sp, 40]
	ldr	x0, [sp, 56]
	str	x0, [sp, 72]
	b	L248
L249:
	ldr	x0, [sp, 72]
	bl	__ZSt11__addressofISt6vectorIcSaIcEEEPT_RS3_
	ldr	x1, [sp, 40]
LEHB18:
	bl	__ZSt10_ConstructISt6vectorIcSaIcEEJRKS2_EEvPT_DpOT0_
LEHE18:
	ldr	x0, [sp, 48]
	sub	x0, x0, #1
	str	x0, [sp, 48]
	ldr	x0, [sp, 72]
	add	x0, x0, 24
	str	x0, [sp, 72]
L248:
	ldr	x0, [sp, 48]
	cmp	x0, 0
	bne	L249
	ldr	x0, [sp, 72]
	b	L255
L253:
	bl	___cxa_begin_catch
	ldr	x1, [sp, 72]
	ldr	x0, [sp, 56]
LEHB19:
	bl	__ZSt8_DestroyIPSt6vectorIcSaIcEEEvT_S4_
	bl	___cxa_rethrow
LEHE19:
L254:
	mov	x19, x0
	bl	___cxa_end_catch
	mov	x0, x19
LEHB20:
	bl	__Unwind_Resume
LEHE20:
L255:
	ldr	x19, [sp, 16]
	ldp	x29, x30, [sp], 80
LCFI244:
	ret
LFE13427:
	.section __DATA,__gcc_except_tab
GCC_except_table12:
	.align	3
LLSDA13427:
	.byte	0xff
	.byte	0
	.uleb128 LLSDATT13427-LLSDATTD13427
LLSDATTD13427:
	.byte	0x1
	.uleb128 LLSDACSE13427-LLSDACSB13427
LLSDACSB13427:
	.uleb128 LEHB18-LFB13427
	.uleb128 LEHE18-LEHB18
	.uleb128 L253-LFB13427
	.uleb128 0x1
	.uleb128 LEHB19-LFB13427
	.uleb128 LEHE19-LEHB19
	.uleb128 L254-LFB13427
	.uleb128 0
	.uleb128 LEHB20-LFB13427
	.uleb128 LEHE20-LEHB20
	.uleb128 0
	.uleb128 0
LLSDACSE13427:
	.byte	0x1
	.byte	0
	.align	3
	.xword	0
LLSDATT13427:
	.text
	.align	2
	.globl __ZSt11__addressofISt6vectorIcSaIcEEEPT_RS3_
	.weak_definition __ZSt11__addressofISt6vectorIcSaIcEEEPT_RS3_
__ZSt11__addressofISt6vectorIcSaIcEEEPT_RS3_:
LFB13428:
	sub	sp, sp, #16
LCFI245:
	str	x0, [sp, 8]
	ldr	x0, [sp, 8]
	add	sp, sp, 16
LCFI246:
	ret
LFE13428:
	.align	2
	.globl __ZSt8_DestroyISt6vectorIcSaIcEEEvPT_
	.weak_definition __ZSt8_DestroyISt6vectorIcSaIcEEEvPT_
__ZSt8_DestroyISt6vectorIcSaIcEEEvPT_:
LFB13429:
	stp	x29, x30, [sp, -32]!
LCFI247:
	mov	x29, sp
	str	x0, [sp, 24]
	ldr	x0, [sp, 24]
	bl	__ZSt10destroy_atISt6vectorIcSaIcEEEvPT_
	nop
	ldp	x29, x30, [sp], 32
LCFI248:
	ret
LFE13429:
	.align	2
	.globl __ZN9__gnu_cxx17__is_null_pointerINS_17__normal_iteratorIPcSt6vectorIcSaIcEEEEEEbT_
	.weak_definition __ZN9__gnu_cxx17__is_null_pointerINS_17__normal_iteratorIPcSt6vectorIcSaIcEEEEEEbT_
__ZN9__gnu_cxx17__is_null_pointerINS_17__normal_iteratorIPcSt6vectorIcSaIcEEEEEEbT_:
LFB13430:
	sub	sp, sp, #16
LCFI249:
	str	x0, [sp, 8]
	mov	w0, 0
	add	sp, sp, 16
LCFI250:
	ret
LFE13430:
	.align	2
	.globl __ZN9__gnu_cxxeqIPcS1_St6vectorIcSaIcEEEEbRKNS_17__normal_iteratorIT_T1_EERKNS5_IT0_S7_EE
	.weak_definition __ZN9__gnu_cxxeqIPcS1_St6vectorIcSaIcEEEEbRKNS_17__normal_iteratorIT_T1_EERKNS5_IT0_S7_EE
__ZN9__gnu_cxxeqIPcS1_St6vectorIcSaIcEEEEbRKNS_17__normal_iteratorIT_T1_EERKNS5_IT0_S7_EE:
LFB13431:
	stp	x29, x30, [sp, -48]!
LCFI251:
	mov	x29, sp
	str	x19, [sp, 16]
LCFI252:
	str	x0, [sp, 40]
	str	x1, [sp, 32]
	ldr	x0, [sp, 40]
	bl	__ZNK9__gnu_cxx17__normal_iteratorIPcSt6vectorIcSaIcEEE4baseEv
	ldr	x19, [x0]
	ldr	x0, [sp, 32]
	bl	__ZNK9__gnu_cxx17__normal_iteratorIPcSt6vectorIcSaIcEEE4baseEv
	ldr	x0, [x0]
	cmp	x19, x0
	cset	w0, eq
	and	w0, w0, 255
	ldr	x19, [sp, 16]
	ldp	x29, x30, [sp], 48
LCFI253:
	ret
LFE13431:
	.align	2
	.globl __ZSt19__iterator_categoryIN9__gnu_cxx17__normal_iteratorIPcSt6vectorIcSaIcEEEEENSt15iterator_traitsIT_E17iterator_categoryERKS8_
	.weak_definition __ZSt19__iterator_categoryIN9__gnu_cxx17__normal_iteratorIPcSt6vectorIcSaIcEEEEENSt15iterator_traitsIT_E17iterator_categoryERKS8_
__ZSt19__iterator_categoryIN9__gnu_cxx17__normal_iteratorIPcSt6vectorIcSaIcEEEEENSt15iterator_traitsIT_E17iterator_categoryERKS8_:
LFB13432:
	sub	sp, sp, #16
LCFI254:
	str	x0, [sp, 8]
	mov	w0, w1
	add	sp, sp, 16
LCFI255:
	ret
LFE13432:
	.align	2
	.globl __ZSt10__distanceIN9__gnu_cxx17__normal_iteratorIPcSt6vectorIcSaIcEEEEENSt15iterator_traitsIT_E15difference_typeES8_S8_St26random_access_iterator_tag
	.weak_definition __ZSt10__distanceIN9__gnu_cxx17__normal_iteratorIPcSt6vectorIcSaIcEEEEENSt15iterator_traitsIT_E15difference_typeES8_S8_St26random_access_iterator_tag
__ZSt10__distanceIN9__gnu_cxx17__normal_iteratorIPcSt6vectorIcSaIcEEEEENSt15iterator_traitsIT_E15difference_typeES8_S8_St26random_access_iterator_tag:
LFB13433:
	stp	x29, x30, [sp, -48]!
LCFI256:
	mov	x29, sp
	str	x0, [sp, 40]
	str	x1, [sp, 32]
	strb	w2, [sp, 24]
	add	x1, sp, 40
	add	x0, sp, 32
	bl	__ZN9__gnu_cxxmiIPcSt6vectorIcSaIcEEEENS_17__normal_iteratorIT_T0_E15difference_typeERKS8_SB_
	ldp	x29, x30, [sp], 48
LCFI257:
	ret
LFE13433:
	.align	2
	.globl __ZN9__gnu_cxx17__normal_iteratorIPcSt6vectorIcSaIcEEEppEv
	.weak_definition __ZN9__gnu_cxx17__normal_iteratorIPcSt6vectorIcSaIcEEEppEv
__ZN9__gnu_cxx17__normal_iteratorIPcSt6vectorIcSaIcEEEppEv:
LFB13435:
	sub	sp, sp, #16
LCFI258:
	str	x0, [sp, 8]
	ldr	x0, [sp, 8]
	ldr	x0, [x0]
	add	x1, x0, 1
	ldr	x0, [sp, 8]
	str	x1, [x0]
	ldr	x0, [sp, 8]
	add	sp, sp, 16
LCFI259:
	ret
LFE13435:
	.align	2
	.globl __ZNSt7__cxx1112basic_stringIcSt11char_traitsIcESaIcEE13_S_copy_charsIN9__gnu_cxx17__normal_iteratorIPcSt6vectorIcS3_EEEEEvS8_T_SC_
	.weak_definition __ZNSt7__cxx1112basic_stringIcSt11char_traitsIcESaIcEE13_S_copy_charsIN9__gnu_cxx17__normal_iteratorIPcSt6vectorIcS3_EEEEEvS8_T_SC_
__ZNSt7__cxx1112basic_stringIcSt11char_traitsIcESaIcEE13_S_copy_charsIN9__gnu_cxx17__normal_iteratorIPcSt6vectorIcS3_EEEEEvS8_T_SC_:
LFB13434:
	stp	x29, x30, [sp, -48]!
LCFI260:
	mov	x29, sp
	str	x0, [sp, 40]
	str	x1, [sp, 32]
	str	x2, [sp, 24]
	b	L270
L271:
	add	x0, sp, 32
	bl	__ZNK9__gnu_cxx17__normal_iteratorIPcSt6vectorIcSaIcEEEdeEv
	mov	x1, x0
	ldr	x0, [sp, 40]
	bl	__ZNSt11char_traitsIcE6assignERcRKc
	add	x0, sp, 32
	bl	__ZN9__gnu_cxx17__normal_iteratorIPcSt6vectorIcSaIcEEEppEv
	ldr	x0, [sp, 40]
	add	x0, x0, 1
	str	x0, [sp, 40]
L270:
	add	x1, sp, 24
	add	x0, sp, 32
	bl	__ZN9__gnu_cxxeqIPcS1_St6vectorIcSaIcEEEEbRKNS_17__normal_iteratorIT_T1_EERKNS5_IT0_S7_EE
	and	w0, w0, 255
	eor	w0, w0, 1
	and	w0, w0, 255
	cmp	w0, 0
	bne	L271
	nop
	nop
	ldp	x29, x30, [sp], 48
LCFI261:
	ret
LFE13434:
	.align	2
	.globl __ZSt11__addressofIKcEPT_RS1_
	.weak_definition __ZSt11__addressofIKcEPT_RS1_
__ZSt11__addressofIKcEPT_RS1_:
LFB13436:
	sub	sp, sp, #16
LCFI262:
	str	x0, [sp, 8]
	ldr	x0, [sp, 8]
	add	sp, sp, 16
LCFI263:
	ret
LFE13436:
	.align	2
	.globl __ZSt10destroy_atIcEvPT_
	.weak_definition __ZSt10destroy_atIcEvPT_
__ZSt10destroy_atIcEvPT_:
LFB13552:
	sub	sp, sp, #16
LCFI264:
	str	x0, [sp, 8]
	nop
	add	sp, sp, 16
LCFI265:
	ret
LFE13552:
	.align	2
	.globl __ZN9__gnu_cxx13new_allocatorISt6vectorIcSaIcEEE10deallocateEPS3_m
	.weak_definition __ZN9__gnu_cxx13new_allocatorISt6vectorIcSaIcEEE10deallocateEPS3_m
__ZN9__gnu_cxx13new_allocatorISt6vectorIcSaIcEEE10deallocateEPS3_m:
LFB13554:
	stp	x29, x30, [sp, -48]!
LCFI266:
	mov	x29, sp
	str	x0, [sp, 40]
	str	x1, [sp, 32]
	str	x2, [sp, 24]
	ldr	x1, [sp, 24]
	mov	x0, x1
	lsl	x0, x0, 1
	add	x0, x0, x1
	lsl	x0, x0, 3
	mov	x1, x0
	ldr	x0, [sp, 32]
	bl	__ZdlPvm
	ldp	x29, x30, [sp], 48
LCFI267:
	ret
LFE13554:
	.align	2
	.globl __ZSt10_ConstructISt6vectorIcSaIcEEJRKS2_EEvPT_DpOT0_
	.weak_definition __ZSt10_ConstructISt6vectorIcSaIcEEJRKS2_EEvPT_DpOT0_
__ZSt10_ConstructISt6vectorIcSaIcEEJRKS2_EEvPT_DpOT0_:
LFB13555:
	stp	x29, x30, [sp, -64]!
LCFI268:
	mov	x29, sp
	stp	x19, x20, [sp, 16]
	str	x21, [sp, 32]
LCFI269:
	str	x0, [sp, 56]
	str	x1, [sp, 48]
	ldr	x0, [sp, 48]
	bl	__ZSt7forwardIRKSt6vectorIcSaIcEEEOT_RNSt16remove_referenceIS5_E4typeE
	mov	x21, x0
	ldr	x19, [sp, 56]
	mov	x1, x19
	mov	x0, 24
	bl	__ZnwmPv
	mov	x20, x0
	mov	x1, x21
	mov	x0, x20
LEHB21:
	bl	__ZNSt6vectorIcSaIcEEC1ERKS1_
LEHE21:
	b	L281
L280:
	mov	x21, x0
	mov	x1, x19
	mov	x0, x20
	bl	__ZdlPvS_
	mov	x0, x21
LEHB22:
	bl	__Unwind_Resume
LEHE22:
L281:
	ldp	x19, x20, [sp, 16]
	ldr	x21, [sp, 32]
	ldp	x29, x30, [sp], 64
LCFI270:
	ret
LFE13555:
	.section __DATA,__gcc_except_tab
GCC_except_table13:
LLSDA13555:
	.byte	0xff
	.byte	0xff
	.byte	0x1
	.uleb128 LLSDACSE13555-LLSDACSB13555
LLSDACSB13555:
	.uleb128 LEHB21-LFB13555
	.uleb128 LEHE21-LEHB21
	.uleb128 L280-LFB13555
	.uleb128 0
	.uleb128 LEHB22-LFB13555
	.uleb128 LEHE22-LEHB22
	.uleb128 0
	.uleb128 0
LLSDACSE13555:
	.text
	.align	2
	.globl __ZSt10destroy_atISt6vectorIcSaIcEEEvPT_
	.weak_definition __ZSt10destroy_atISt6vectorIcSaIcEEEvPT_
__ZSt10destroy_atISt6vectorIcSaIcEEEvPT_:
LFB13557:
	stp	x29, x30, [sp, -32]!
LCFI271:
	mov	x29, sp
	str	x0, [sp, 24]
	ldr	x0, [sp, 24]
	bl	__ZNSt6vectorIcSaIcEED1Ev
	nop
	ldp	x29, x30, [sp], 32
LCFI272:
	ret
LFE13557:
	.align	2
	.globl __ZN9__gnu_cxxmiIPcSt6vectorIcSaIcEEEENS_17__normal_iteratorIT_T0_E15difference_typeERKS8_SB_
	.weak_definition __ZN9__gnu_cxxmiIPcSt6vectorIcSaIcEEEENS_17__normal_iteratorIT_T0_E15difference_typeERKS8_SB_
__ZN9__gnu_cxxmiIPcSt6vectorIcSaIcEEEENS_17__normal_iteratorIT_T0_E15difference_typeERKS8_SB_:
LFB13558:
	stp	x29, x30, [sp, -48]!
LCFI273:
	mov	x29, sp
	str	x19, [sp, 16]
LCFI274:
	str	x0, [sp, 40]
	str	x1, [sp, 32]
	ldr	x0, [sp, 40]
	bl	__ZNK9__gnu_cxx17__normal_iteratorIPcSt6vectorIcSaIcEEE4baseEv
	ldr	x19, [x0]
	ldr	x0, [sp, 32]
	bl	__ZNK9__gnu_cxx17__normal_iteratorIPcSt6vectorIcSaIcEEE4baseEv
	ldr	x0, [x0]
	sub	x0, x19, x0
	ldr	x19, [sp, 16]
	ldp	x29, x30, [sp], 48
LCFI275:
	ret
LFE13558:
	.align	2
	.globl __ZNK9__gnu_cxx17__normal_iteratorIPcSt6vectorIcSaIcEEEdeEv
	.weak_definition __ZNK9__gnu_cxx17__normal_iteratorIPcSt6vectorIcSaIcEEEdeEv
__ZNK9__gnu_cxx17__normal_iteratorIPcSt6vectorIcSaIcEEEdeEv:
LFB13559:
	sub	sp, sp, #16
LCFI276:
	str	x0, [sp, 8]
	ldr	x0, [sp, 8]
	ldr	x0, [x0]
	add	sp, sp, 16
LCFI277:
	ret
LFE13559:
	.align	2
	.globl __ZNK9__gnu_cxx13new_allocatorISt6vectorIcSaIcEEE11_M_max_sizeEv
	.weak_definition __ZNK9__gnu_cxx13new_allocatorISt6vectorIcSaIcEEE11_M_max_sizeEv
__ZNK9__gnu_cxx13new_allocatorISt6vectorIcSaIcEEE11_M_max_sizeEv:
LFB13625:
	sub	sp, sp, #16
LCFI278:
	str	x0, [sp, 8]
	mov	x0, 6148914691236517205
	movk	x0, 0x555, lsl 48
	add	sp, sp, 16
LCFI279:
	ret
LFE13625:
	.align	2
	.globl __ZN9__gnu_cxx13new_allocatorISt6vectorIcSaIcEEE8allocateEmPKv
	.weak_definition __ZN9__gnu_cxx13new_allocatorISt6vectorIcSaIcEEE8allocateEmPKv
__ZN9__gnu_cxx13new_allocatorISt6vectorIcSaIcEEE8allocateEmPKv:
LFB13624:
	stp	x29, x30, [sp, -48]!
LCFI280:
	mov	x29, sp
	str	x0, [sp, 40]
	str	x1, [sp, 32]
	str	x2, [sp, 24]
	ldr	x0, [sp, 40]
	bl	__ZNK9__gnu_cxx13new_allocatorISt6vectorIcSaIcEEE11_M_max_sizeEv
	mov	x1, x0
	ldr	x0, [sp, 32]
	cmp	x0, x1
	cset	w0, hi
	and	w0, w0, 255
	and	x0, x0, 255
	cmp	x0, 0
	cset	w0, ne
	and	w0, w0, 255
	cmp	w0, 0
	beq	L290
	ldr	x1, [sp, 32]
	mov	x0, -6148914691236517206
	movk	x0, 0xaaa, lsl 48
	cmp	x1, x0
	bls	L291
	bl	__ZSt28__throw_bad_array_new_lengthv
L291:
	bl	__ZSt17__throw_bad_allocv
L290:
	ldr	x1, [sp, 32]
	mov	x0, x1
	lsl	x0, x0, 1
	add	x0, x0, x1
	lsl	x0, x0, 3
	bl	__Znwm
	nop
	ldp	x29, x30, [sp], 48
LCFI281:
	ret
LFE13624:
	.align	2
	.globl __ZSt7forwardIRKSt6vectorIcSaIcEEEOT_RNSt16remove_referenceIS5_E4typeE
	.weak_definition __ZSt7forwardIRKSt6vectorIcSaIcEEEOT_RNSt16remove_referenceIS5_E4typeE
__ZSt7forwardIRKSt6vectorIcSaIcEEEOT_RNSt16remove_referenceIS5_E4typeE:
LFB13626:
	sub	sp, sp, #16
LCFI282:
	str	x0, [sp, 8]
	ldr	x0, [sp, 8]
	add	sp, sp, 16
LCFI283:
	ret
LFE13626:
	.align	2
	.globl __ZNSt6vectorIcSaIcEEC1ERKS1_
	.weak_definition __ZNSt6vectorIcSaIcEEC1ERKS1_
__ZNSt6vectorIcSaIcEEC1ERKS1_:
LFB13629:
	stp	x29, x30, [sp, -80]!
LCFI284:
	mov	x29, sp
	stp	x19, x20, [sp, 16]
	str	x21, [sp, 32]
LCFI285:
	str	x0, [sp, 56]
	str	x1, [sp, 48]
	ldr	x19, [sp, 56]
	ldr	x0, [sp, 48]
	bl	__ZNKSt6vectorIcSaIcEE4sizeEv
	mov	x20, x0
	ldr	x0, [sp, 48]
	bl	__ZNKSt12_Vector_baseIcSaIcEE19_M_get_Tp_allocatorEv
	mov	x1, x0
	add	x0, sp, 72
	mov	x8, x0
	mov	x0, x1
	bl	__ZN9__gnu_cxx14__alloc_traitsISaIcEcE17_S_select_on_copyERKS1_
	add	x0, sp, 72
	mov	x2, x0
	mov	x1, x20
	mov	x0, x19
LEHB23:
	bl	__ZNSt12_Vector_baseIcSaIcEEC2EmRKS0_
LEHE23:
	add	x0, sp, 72
	bl	__ZNSaIcED1Ev
	ldr	x0, [sp, 48]
	bl	__ZNKSt6vectorIcSaIcEE5beginEv
	mov	x20, x0
	ldr	x0, [sp, 48]
	bl	__ZNKSt6vectorIcSaIcEE3endEv
	mov	x21, x0
	ldr	x0, [sp, 56]
	ldr	x19, [x0]
	ldr	x0, [sp, 56]
	bl	__ZNSt12_Vector_baseIcSaIcEE19_M_get_Tp_allocatorEv
	mov	x3, x0
	mov	x2, x19
	mov	x1, x21
	mov	x0, x20
LEHB24:
	bl	__ZSt22__uninitialized_copy_aIN9__gnu_cxx17__normal_iteratorIPKcSt6vectorIcSaIcEEEEPccET0_T_SA_S9_RSaIT1_E
LEHE24:
	mov	x1, x0
	ldr	x0, [sp, 56]
	str	x1, [x0, 8]
	b	L300
L298:
	mov	x19, x0
	add	x0, sp, 72
	bl	__ZNSaIcED1Ev
	mov	x0, x19
LEHB25:
	bl	__Unwind_Resume
L299:
	mov	x19, x0
	ldr	x0, [sp, 56]
	bl	__ZNSt12_Vector_baseIcSaIcEED2Ev
	mov	x0, x19
	bl	__Unwind_Resume
LEHE25:
L300:
	ldp	x19, x20, [sp, 16]
	ldr	x21, [sp, 32]
	ldp	x29, x30, [sp], 80
LCFI286:
	ret
LFE13629:
	.section __DATA,__gcc_except_tab
GCC_except_table14:
LLSDA13629:
	.byte	0xff
	.byte	0xff
	.byte	0x1
	.uleb128 LLSDACSE13629-LLSDACSB13629
LLSDACSB13629:
	.uleb128 LEHB23-LFB13629
	.uleb128 LEHE23-LEHB23
	.uleb128 L298-LFB13629
	.uleb128 0
	.uleb128 LEHB24-LFB13629
	.uleb128 LEHE24-LEHB24
	.uleb128 L299-LFB13629
	.uleb128 0
	.uleb128 LEHB25-LFB13629
	.uleb128 LEHE25-LEHB25
	.uleb128 0
	.uleb128 0
LLSDACSE13629:
	.text
	.align	2
	.globl __ZNKSt6vectorIcSaIcEE4sizeEv
	.weak_definition __ZNKSt6vectorIcSaIcEE4sizeEv
__ZNKSt6vectorIcSaIcEE4sizeEv:
LFB13656:
	sub	sp, sp, #16
LCFI287:
	str	x0, [sp, 8]
	ldr	x0, [sp, 8]
	ldr	x1, [x0, 8]
	ldr	x0, [sp, 8]
	ldr	x0, [x0]
	sub	x0, x1, x0
	add	sp, sp, 16
LCFI288:
	ret
LFE13656:
	.align	2
	.globl __ZNKSt12_Vector_baseIcSaIcEE19_M_get_Tp_allocatorEv
	.weak_definition __ZNKSt12_Vector_baseIcSaIcEE19_M_get_Tp_allocatorEv
__ZNKSt12_Vector_baseIcSaIcEE19_M_get_Tp_allocatorEv:
LFB13657:
	sub	sp, sp, #16
LCFI289:
	str	x0, [sp, 8]
	ldr	x0, [sp, 8]
	add	sp, sp, 16
LCFI290:
	ret
LFE13657:
	.align	2
	.globl __ZNKSt6vectorIcSaIcEE5beginEv
	.weak_definition __ZNKSt6vectorIcSaIcEE5beginEv
__ZNKSt6vectorIcSaIcEE5beginEv:
LFB13658:
	stp	x29, x30, [sp, -48]!
LCFI291:
	mov	x29, sp
	str	x0, [sp, 24]
	ldr	x1, [sp, 24]
	add	x0, sp, 40
	bl	__ZN9__gnu_cxx17__normal_iteratorIPKcSt6vectorIcSaIcEEEC1ERKS2_
	ldr	x0, [sp, 40]
	ldp	x29, x30, [sp], 48
LCFI292:
	ret
LFE13658:
	.align	2
	.globl __ZNKSt6vectorIcSaIcEE3endEv
	.weak_definition __ZNKSt6vectorIcSaIcEE3endEv
__ZNKSt6vectorIcSaIcEE3endEv:
LFB13659:
	stp	x29, x30, [sp, -48]!
LCFI293:
	mov	x29, sp
	str	x0, [sp, 24]
	ldr	x0, [sp, 24]
	add	x1, x0, 8
	add	x0, sp, 40
	bl	__ZN9__gnu_cxx17__normal_iteratorIPKcSt6vectorIcSaIcEEEC1ERKS2_
	ldr	x0, [sp, 40]
	ldp	x29, x30, [sp], 48
LCFI294:
	ret
LFE13659:
	.align	2
	.globl __ZSt22__uninitialized_copy_aIN9__gnu_cxx17__normal_iteratorIPKcSt6vectorIcSaIcEEEEPccET0_T_SA_S9_RSaIT1_E
	.weak_definition __ZSt22__uninitialized_copy_aIN9__gnu_cxx17__normal_iteratorIPKcSt6vectorIcSaIcEEEEPccET0_T_SA_S9_RSaIT1_E
__ZSt22__uninitialized_copy_aIN9__gnu_cxx17__normal_iteratorIPKcSt6vectorIcSaIcEEEEPccET0_T_SA_S9_RSaIT1_E:
LFB13660:
	stp	x29, x30, [sp, -48]!
LCFI295:
	mov	x29, sp
	str	x0, [sp, 40]
	str	x1, [sp, 32]
	str	x2, [sp, 24]
	str	x3, [sp, 16]
	ldr	x2, [sp, 24]
	ldr	x1, [sp, 32]
	ldr	x0, [sp, 40]
	bl	__ZSt18uninitialized_copyIN9__gnu_cxx17__normal_iteratorIPKcSt6vectorIcSaIcEEEEPcET0_T_SA_S9_
	ldp	x29, x30, [sp], 48
LCFI296:
	ret
LFE13660:
	.align	2
	.globl __ZN9__gnu_cxx17__normal_iteratorIPKcSt6vectorIcSaIcEEEC1ERKS2_
	.weak_definition __ZN9__gnu_cxx17__normal_iteratorIPKcSt6vectorIcSaIcEEEC1ERKS2_
__ZN9__gnu_cxx17__normal_iteratorIPKcSt6vectorIcSaIcEEEC1ERKS2_:
LFB13673:
	sub	sp, sp, #16
LCFI297:
	str	x0, [sp, 8]
	str	x1, [sp]
	ldr	x0, [sp]
	ldr	x1, [x0]
	ldr	x0, [sp, 8]
	str	x1, [x0]
	nop
	add	sp, sp, 16
LCFI298:
	ret
LFE13673:
	.align	2
	.globl __ZSt18uninitialized_copyIN9__gnu_cxx17__normal_iteratorIPKcSt6vectorIcSaIcEEEEPcET0_T_SA_S9_
	.weak_definition __ZSt18uninitialized_copyIN9__gnu_cxx17__normal_iteratorIPKcSt6vectorIcSaIcEEEEPcET0_T_SA_S9_
__ZSt18uninitialized_copyIN9__gnu_cxx17__normal_iteratorIPKcSt6vectorIcSaIcEEEEPcET0_T_SA_S9_:
LFB13674:
	stp	x29, x30, [sp, -64]!
LCFI299:
	mov	x29, sp
	str	x0, [sp, 40]
	str	x1, [sp, 32]
	str	x2, [sp, 24]
	mov	w0, 1
	strb	w0, [sp, 63]
	ldr	x2, [sp, 24]
	ldr	x1, [sp, 32]
	ldr	x0, [sp, 40]
	bl	__ZNSt20__uninitialized_copyILb1EE13__uninit_copyIN9__gnu_cxx17__normal_iteratorIPKcSt6vectorIcSaIcEEEEPcEET0_T_SC_SB_
	ldp	x29, x30, [sp], 64
LCFI300:
	ret
LFE13674:
	.align	2
	.globl __ZNSt20__uninitialized_copyILb1EE13__uninit_copyIN9__gnu_cxx17__normal_iteratorIPKcSt6vectorIcSaIcEEEEPcEET0_T_SC_SB_
	.weak_definition __ZNSt20__uninitialized_copyILb1EE13__uninit_copyIN9__gnu_cxx17__normal_iteratorIPKcSt6vectorIcSaIcEEEEPcEET0_T_SC_SB_
__ZNSt20__uninitialized_copyILb1EE13__uninit_copyIN9__gnu_cxx17__normal_iteratorIPKcSt6vectorIcSaIcEEEEPcEET0_T_SC_SB_:
LFB13692:
	stp	x29, x30, [sp, -48]!
LCFI301:
	mov	x29, sp
	str	x0, [sp, 40]
	str	x1, [sp, 32]
	str	x2, [sp, 24]
	ldr	x2, [sp, 24]
	ldr	x1, [sp, 32]
	ldr	x0, [sp, 40]
	bl	__ZSt4copyIN9__gnu_cxx17__normal_iteratorIPKcSt6vectorIcSaIcEEEEPcET0_T_SA_S9_
	ldp	x29, x30, [sp], 48
LCFI302:
	ret
LFE13692:
	.align	2
	.globl __ZSt4copyIN9__gnu_cxx17__normal_iteratorIPKcSt6vectorIcSaIcEEEEPcET0_T_SA_S9_
	.weak_definition __ZSt4copyIN9__gnu_cxx17__normal_iteratorIPKcSt6vectorIcSaIcEEEEPcET0_T_SA_S9_
__ZSt4copyIN9__gnu_cxx17__normal_iteratorIPKcSt6vectorIcSaIcEEEEPcET0_T_SA_S9_:
LFB13694:
	stp	x29, x30, [sp, -64]!
LCFI303:
	mov	x29, sp
	str	x19, [sp, 16]
LCFI304:
	str	x0, [sp, 56]
	str	x1, [sp, 48]
	str	x2, [sp, 40]
	ldr	x0, [sp, 56]
	bl	__ZSt12__miter_baseIN9__gnu_cxx17__normal_iteratorIPKcSt6vectorIcSaIcEEEEET_S8_
	mov	x19, x0
	ldr	x0, [sp, 48]
	bl	__ZSt12__miter_baseIN9__gnu_cxx17__normal_iteratorIPKcSt6vectorIcSaIcEEEEET_S8_
	ldr	x2, [sp, 40]
	mov	x1, x0
	mov	x0, x19
	bl	__ZSt13__copy_move_aILb0EN9__gnu_cxx17__normal_iteratorIPKcSt6vectorIcSaIcEEEEPcET1_T0_SA_S9_
	ldr	x19, [sp, 16]
	ldp	x29, x30, [sp], 64
LCFI305:
	ret
LFE13694:
	.align	2
	.globl __ZSt12__miter_baseIN9__gnu_cxx17__normal_iteratorIPKcSt6vectorIcSaIcEEEEET_S8_
	.weak_definition __ZSt12__miter_baseIN9__gnu_cxx17__normal_iteratorIPKcSt6vectorIcSaIcEEEEET_S8_
__ZSt12__miter_baseIN9__gnu_cxx17__normal_iteratorIPKcSt6vectorIcSaIcEEEEET_S8_:
LFB13696:
	sub	sp, sp, #16
LCFI306:
	str	x0, [sp, 8]
	ldr	x0, [sp, 8]
	add	sp, sp, 16
LCFI307:
	ret
LFE13696:
	.align	2
	.globl __ZSt13__copy_move_aILb0EN9__gnu_cxx17__normal_iteratorIPKcSt6vectorIcSaIcEEEEPcET1_T0_SA_S9_
	.weak_definition __ZSt13__copy_move_aILb0EN9__gnu_cxx17__normal_iteratorIPKcSt6vectorIcSaIcEEEEPcET1_T0_SA_S9_
__ZSt13__copy_move_aILb0EN9__gnu_cxx17__normal_iteratorIPKcSt6vectorIcSaIcEEEEPcET1_T0_SA_S9_:
LFB13697:
	stp	x29, x30, [sp, -64]!
LCFI308:
	mov	x29, sp
	stp	x19, x20, [sp, 16]
LCFI309:
	str	x0, [sp, 56]
	str	x1, [sp, 48]
	str	x2, [sp, 40]
	ldr	x0, [sp, 56]
	bl	__ZSt12__niter_baseIPKcSt6vectorIcSaIcEEET_N9__gnu_cxx17__normal_iteratorIS5_T0_EE
	mov	x19, x0
	ldr	x0, [sp, 48]
	bl	__ZSt12__niter_baseIPKcSt6vectorIcSaIcEEET_N9__gnu_cxx17__normal_iteratorIS5_T0_EE
	mov	x20, x0
	ldr	x0, [sp, 40]
	bl	__ZSt12__niter_baseIPcET_S1_
	mov	x2, x0
	mov	x1, x20
	mov	x0, x19
	bl	__ZSt14__copy_move_a1ILb0EPKcPcET1_T0_S4_S3_
	mov	x1, x0
	add	x0, sp, 40
	bl	__ZSt12__niter_wrapIPcET_RKS1_S1_
	ldp	x19, x20, [sp, 16]
	ldp	x29, x30, [sp], 64
LCFI310:
	ret
LFE13697:
	.align	2
	.globl __ZSt12__niter_baseIPKcSt6vectorIcSaIcEEET_N9__gnu_cxx17__normal_iteratorIS5_T0_EE
	.weak_definition __ZSt12__niter_baseIPKcSt6vectorIcSaIcEEET_N9__gnu_cxx17__normal_iteratorIS5_T0_EE
__ZSt12__niter_baseIPKcSt6vectorIcSaIcEEET_N9__gnu_cxx17__normal_iteratorIS5_T0_EE:
LFB13698:
	stp	x29, x30, [sp, -32]!
LCFI311:
	mov	x29, sp
	str	x0, [sp, 24]
	add	x0, sp, 24
	bl	__ZNK9__gnu_cxx17__normal_iteratorIPKcSt6vectorIcSaIcEEE4baseEv
	ldr	x0, [x0]
	ldp	x29, x30, [sp], 32
LCFI312:
	ret
LFE13698:
	.align	2
	.globl __ZNK9__gnu_cxx17__normal_iteratorIPKcSt6vectorIcSaIcEEE4baseEv
	.weak_definition __ZNK9__gnu_cxx17__normal_iteratorIPKcSt6vectorIcSaIcEEE4baseEv
__ZNK9__gnu_cxx17__normal_iteratorIPKcSt6vectorIcSaIcEEE4baseEv:
LFB13699:
	sub	sp, sp, #16
LCFI313:
	str	x0, [sp, 8]
	ldr	x0, [sp, 8]
	add	sp, sp, 16
LCFI314:
	ret
LFE13699:
	.align	2
__Z41__static_initialization_and_destruction_0ii:
LFB13736:
	stp	x29, x30, [sp, -32]!
LCFI315:
	mov	x29, sp
	str	w0, [sp, 28]
	str	w1, [sp, 24]
	ldr	w0, [sp, 28]
	cmp	w0, 1
	bne	L328
	ldr	w1, [sp, 24]
	mov	w0, 65535
	cmp	w1, w0
	bne	L328
	adrp	x0, __ZStL8__ioinit@PAGE
	add	x0, x0, __ZStL8__ioinit@PAGEOFF;momd
	bl	__ZNSt8ios_base4InitC1Ev
	adrp	x0, ___dso_handle@PAGE
	add	x2, x0, ___dso_handle@PAGEOFF;momd
	adrp	x0, __ZStL8__ioinit@PAGE
	add	x1, x0, __ZStL8__ioinit@PAGEOFF;momd
	adrp	x0, __ZNSt8ios_base4InitD1Ev@GOTPAGE
	ldr	x0, [x0, __ZNSt8ios_base4InitD1Ev@GOTPAGEOFF];momd
	bl	___cxa_atexit
L328:
	nop
	ldp	x29, x30, [sp], 32
LCFI316:
	ret
LFE13736:
	.align	2
__GLOBAL__sub_I_solution.cpp:
LFB13759:
	stp	x29, x30, [sp, -16]!
LCFI317:
	mov	x29, sp
	mov	w1, 65535
	mov	w0, 1
	bl	__Z41__static_initialization_and_destruction_0ii
	ldp	x29, x30, [sp], 16
LCFI318:
	ret
LFE13759:
	.section __TEXT,__eh_frame,coalesced,no_toc+strip_static_syms+live_support
EH_frame1:
	.set L$set$0,LECIE1-LSCIE1
	.long L$set$0
LSCIE1:
	.long	0
	.byte	0x1
	.ascii "zPLR\0"
	.uleb128 0x1
	.sleb128 -8
	.byte	0x1e
	.uleb128 0x7
	.byte	0x9b
	.long	___gxx_personality_v0@GOT-.
	.byte	0x10
	.byte	0x10
	.byte	0xc
	.uleb128 0x1f
	.uleb128 0
	.align	3
LECIE1:
LSFDE1:
	.set L$set$1,LEFDE1-LASFDE1
	.long L$set$1
LASFDE1:
	.long	LASFDE1-EH_frame1
	.quad	LFB301-.
	.set L$set$2,LFE301-LFB301
	.quad L$set$2
	.uleb128 0x8
	.quad	0
	.align	3
LEFDE1:
LSFDE3:
	.set L$set$3,LEFDE3-LASFDE3
	.long L$set$3
LASFDE3:
	.long	LASFDE3-EH_frame1
	.quad	LFB464-.
	.set L$set$4,LFE464-LFB464
	.quad L$set$4
	.uleb128 0x8
	.quad	0
	.byte	0x4
	.set L$set$5,LCFI0-LFB464
	.long L$set$5
	.byte	0xe
	.uleb128 0x10
	.byte	0x4
	.set L$set$6,LCFI1-LCFI0
	.long L$set$6
	.byte	0xe
	.uleb128 0
	.align	3
LEFDE3:
LSFDE5:
	.set L$set$7,LEFDE5-LASFDE5
	.long L$set$7
LASFDE5:
	.long	LASFDE5-EH_frame1
	.quad	LFB466-.
	.set L$set$8,LFE466-LFB466
	.quad L$set$8
	.uleb128 0x8
	.quad	0
	.byte	0x4
	.set L$set$9,LCFI2-LFB466
	.long L$set$9
	.byte	0xe
	.uleb128 0x10
	.byte	0x4
	.set L$set$10,LCFI3-LCFI2
	.long L$set$10
	.byte	0xe
	.uleb128 0
	.align	3
LEFDE5:
LSFDE7:
	.set L$set$11,LEFDE7-LASFDE7
	.long L$set$11
LASFDE7:
	.long	LASFDE7-EH_frame1
	.quad	LFB734-.
	.set L$set$12,LFE734-LFB734
	.quad L$set$12
	.uleb128 0x8
	.quad	0
	.byte	0x4
	.set L$set$13,LCFI4-LFB734
	.long L$set$13
	.byte	0xe
	.uleb128 0x10
	.byte	0x4
	.set L$set$14,LCFI5-LCFI4
	.long L$set$14
	.byte	0xe
	.uleb128 0
	.align	3
LEFDE7:
LSFDE9:
	.set L$set$15,LEFDE9-LASFDE9
	.long L$set$15
LASFDE9:
	.long	LASFDE9-EH_frame1
	.quad	LFB1273-.
	.set L$set$16,LFE1273-LFB1273
	.quad L$set$16
	.uleb128 0x8
	.quad	0
	.byte	0x4
	.set L$set$17,LCFI6-LFB1273
	.long L$set$17
	.byte	0xe
	.uleb128 0x10
	.byte	0x4
	.set L$set$18,LCFI7-LCFI6
	.long L$set$18
	.byte	0xe
	.uleb128 0
	.align	3
LEFDE9:
LSFDE11:
	.set L$set$19,LEFDE11-LASFDE11
	.long L$set$19
LASFDE11:
	.long	LASFDE11-EH_frame1
	.quad	LFB3905-.
	.set L$set$20,LFE3905-LFB3905
	.quad L$set$20
	.uleb128 0x8
	.quad	0
	.byte	0x4
	.set L$set$21,LCFI8-LFB3905
	.long L$set$21
	.byte	0xe
	.uleb128 0x10
	.byte	0x4
	.set L$set$22,LCFI9-LCFI8
	.long L$set$22
	.byte	0xe
	.uleb128 0
	.align	3
LEFDE11:
LSFDE13:
	.set L$set$23,LEFDE13-LASFDE13
	.long L$set$23
LASFDE13:
	.long	LASFDE13-EH_frame1
	.quad	LFB11493-.
	.set L$set$24,LFE11493-LFB11493
	.quad L$set$24
	.uleb128 0x8
	.quad	LLSDA11493-.
	.byte	0x4
	.set L$set$25,LCFI10-LFB11493
	.long L$set$25
	.byte	0xe
	.uleb128 0xb0
	.byte	0x4
	.set L$set$26,LCFI11-LCFI10
	.long L$set$26
	.byte	0x9d
	.uleb128 0x14
	.byte	0x9e
	.uleb128 0x13
	.byte	0x4
	.set L$set$27,LCFI12-LCFI11
	.long L$set$27
	.byte	0x93
	.uleb128 0x12
	.byte	0x94
	.uleb128 0x11
	.byte	0x4
	.set L$set$28,LCFI13-LCFI12
	.long L$set$28
	.byte	0xdd
	.byte	0xde
	.byte	0xd3
	.byte	0xd4
	.byte	0xe
	.uleb128 0
	.align	3
LEFDE13:
LSFDE15:
	.set L$set$29,LEFDE15-LASFDE15
	.long L$set$29
LASFDE15:
	.long	LASFDE15-EH_frame1
	.quad	LFB11494-.
	.set L$set$30,LFE11494-LFB11494
	.quad L$set$30
	.uleb128 0x8
	.quad	0
	.byte	0x4
	.set L$set$31,LCFI14-LFB11494
	.long L$set$31
	.byte	0xe
	.uleb128 0x20
	.byte	0x9d
	.uleb128 0x4
	.byte	0x9e
	.uleb128 0x3
	.byte	0x4
	.set L$set$32,LCFI15-LCFI14
	.long L$set$32
	.byte	0xde
	.byte	0xdd
	.byte	0xe
	.uleb128 0
	.align	3
LEFDE15:
LSFDE17:
	.set L$set$33,LEFDE17-LASFDE17
	.long L$set$33
LASFDE17:
	.long	LASFDE17-EH_frame1
	.quad	LFB11550-.
	.set L$set$34,LFE11550-LFB11550
	.quad L$set$34
	.uleb128 0x8
	.quad	0
	.byte	0x4
	.set L$set$35,LCFI16-LFB11550
	.long L$set$35
	.byte	0xe
	.uleb128 0x50
	.byte	0x9d
	.uleb128 0xa
	.byte	0x9e
	.uleb128 0x9
	.byte	0x4
	.set L$set$36,LCFI17-LCFI16
	.long L$set$36
	.byte	0x93
	.uleb128 0x8
	.byte	0x94
	.uleb128 0x7
	.byte	0x95
	.uleb128 0x6
	.byte	0x4
	.set L$set$37,LCFI18-LCFI17
	.long L$set$37
	.byte	0xde
	.byte	0xdd
	.byte	0xd5
	.byte	0xd3
	.byte	0xd4
	.byte	0xe
	.uleb128 0
	.align	3
LEFDE17:
LSFDE19:
	.set L$set$38,LEFDE19-LASFDE19
	.long L$set$38
LASFDE19:
	.long	LASFDE19-EH_frame1
	.quad	LFB11683-.
	.set L$set$39,LFE11683-LFB11683
	.quad L$set$39
	.uleb128 0x8
	.quad	0
	.byte	0x4
	.set L$set$40,LCFI19-LFB11683
	.long L$set$40
	.byte	0xe
	.uleb128 0x20
	.byte	0x9d
	.uleb128 0x4
	.byte	0x9e
	.uleb128 0x3
	.byte	0x4
	.set L$set$41,LCFI20-LCFI19
	.long L$set$41
	.byte	0xde
	.byte	0xdd
	.byte	0xe
	.uleb128 0
	.align	3
LEFDE19:
LSFDE21:
	.set L$set$42,LEFDE21-LASFDE21
	.long L$set$42
LASFDE21:
	.long	LASFDE21-EH_frame1
	.quad	LFB11688-.
	.set L$set$43,LFE11688-LFB11688
	.quad L$set$43
	.uleb128 0x8
	.quad	LLSDA11688-.
	.byte	0x4
	.set L$set$44,LCFI21-LFB11688
	.long L$set$44
	.byte	0xe
	.uleb128 0x20
	.byte	0x9d
	.uleb128 0x4
	.byte	0x9e
	.uleb128 0x3
	.byte	0x4
	.set L$set$45,LCFI22-LCFI21
	.long L$set$45
	.byte	0xde
	.byte	0xdd
	.byte	0xe
	.uleb128 0
	.align	3
LEFDE21:
LSFDE23:
	.set L$set$46,LEFDE23-LASFDE23
	.long L$set$46
LASFDE23:
	.long	LASFDE23-EH_frame1
	.quad	LFB12356-.
	.set L$set$47,LFE12356-LFB12356
	.quad L$set$47
	.uleb128 0x8
	.quad	LLSDA12356-.
	.byte	0x4
	.set L$set$48,LCFI23-LFB12356
	.long L$set$48
	.byte	0xe
	.uleb128 0x40
	.byte	0x9d
	.uleb128 0x8
	.byte	0x9e
	.uleb128 0x7
	.byte	0x4
	.set L$set$49,LCFI24-LCFI23
	.long L$set$49
	.byte	0x93
	.uleb128 0x6
	.byte	0x4
	.set L$set$50,LCFI25-LCFI24
	.long L$set$50
	.byte	0xde
	.byte	0xdd
	.byte	0xd3
	.byte	0xe
	.uleb128 0
	.align	3
LEFDE23:
LSFDE25:
	.set L$set$51,LEFDE25-LASFDE25
	.long L$set$51
LASFDE25:
	.long	LASFDE25-EH_frame1
	.quad	LFB12359-.
	.set L$set$52,LFE12359-LFB12359
	.quad L$set$52
	.uleb128 0x8
	.quad	LLSDA12359-.
	.byte	0x4
	.set L$set$53,LCFI26-LFB12359
	.long L$set$53
	.byte	0xe
	.uleb128 0x30
	.byte	0x9d
	.uleb128 0x6
	.byte	0x9e
	.uleb128 0x5
	.byte	0x4
	.set L$set$54,LCFI27-LCFI26
	.long L$set$54
	.byte	0x93
	.uleb128 0x4
	.byte	0x94
	.uleb128 0x3
	.byte	0x4
	.set L$set$55,LCFI28-LCFI27
	.long L$set$55
	.byte	0xde
	.byte	0xdd
	.byte	0xd3
	.byte	0xd4
	.byte	0xe
	.uleb128 0
	.align	3
LEFDE25:
LSFDE27:
	.set L$set$56,LEFDE27-LASFDE27
	.long L$set$56
LASFDE27:
	.long	LASFDE27-EH_frame1
	.quad	LFB12362-.
	.set L$set$57,LFE12362-LFB12362
	.quad L$set$57
	.uleb128 0x8
	.quad	0
	.byte	0x4
	.set L$set$58,LCFI29-LFB12362
	.long L$set$58
	.byte	0xe
	.uleb128 0x20
	.byte	0x9d
	.uleb128 0x4
	.byte	0x9e
	.uleb128 0x3
	.byte	0x4
	.set L$set$59,LCFI30-LCFI29
	.long L$set$59
	.byte	0xde
	.byte	0xdd
	.byte	0xe
	.uleb128 0
	.align	3
LEFDE27:
LSFDE29:
	.set L$set$60,LEFDE29-LASFDE29
	.long L$set$60
LASFDE29:
	.long	LASFDE29-EH_frame1
	.quad	LFB12364-.
	.set L$set$61,LFE12364-LFB12364
	.quad L$set$61
	.uleb128 0x8
	.quad	0
	.byte	0x4
	.set L$set$62,LCFI31-LFB12364
	.long L$set$62
	.byte	0xe
	.uleb128 0x10
	.byte	0x4
	.set L$set$63,LCFI32-LCFI31
	.long L$set$63
	.byte	0xe
	.uleb128 0
	.align	3
LEFDE29:
LSFDE31:
	.set L$set$64,LEFDE31-LASFDE31
	.long L$set$64
LASFDE31:
	.long	LASFDE31-EH_frame1
	.quad	LFB12365-.
	.set L$set$65,LFE12365-LFB12365
	.quad L$set$65
	.uleb128 0x8
	.quad	0
	.byte	0x4
	.set L$set$66,LCFI33-LFB12365
	.long L$set$66
	.byte	0xe
	.uleb128 0x10
	.byte	0x4
	.set L$set$67,LCFI34-LCFI33
	.long L$set$67
	.byte	0xe
	.uleb128 0
	.align	3
LEFDE31:
LSFDE33:
	.set L$set$68,LEFDE33-LASFDE33
	.long L$set$68
LASFDE33:
	.long	LASFDE33-EH_frame1
	.quad	LFB12368-.
	.set L$set$69,LFE12368-LFB12368
	.quad L$set$69
	.uleb128 0x8
	.quad	LLSDA12368-.
	.byte	0x4
	.set L$set$70,LCFI35-LFB12368
	.long L$set$70
	.byte	0xe
	.uleb128 0x40
	.byte	0x9d
	.uleb128 0x8
	.byte	0x9e
	.uleb128 0x7
	.byte	0x4
	.set L$set$71,LCFI36-LCFI35
	.long L$set$71
	.byte	0x93
	.uleb128 0x6
	.byte	0x4
	.set L$set$72,LCFI37-LCFI36
	.long L$set$72
	.byte	0xde
	.byte	0xdd
	.byte	0xd3
	.byte	0xe
	.uleb128 0
	.align	3
LEFDE33:
LSFDE35:
	.set L$set$73,LEFDE35-LASFDE35
	.long L$set$73
LASFDE35:
	.long	LASFDE35-EH_frame1
	.quad	LFB12371-.
	.set L$set$74,LFE12371-LFB12371
	.quad L$set$74
	.uleb128 0x8
	.quad	LLSDA12371-.
	.byte	0x4
	.set L$set$75,LCFI38-LFB12371
	.long L$set$75
	.byte	0xe
	.uleb128 0x30
	.byte	0x9d
	.uleb128 0x6
	.byte	0x9e
	.uleb128 0x5
	.byte	0x4
	.set L$set$76,LCFI39-LCFI38
	.long L$set$76
	.byte	0x93
	.uleb128 0x4
	.byte	0x94
	.uleb128 0x3
	.byte	0x4
	.set L$set$77,LCFI40-LCFI39
	.long L$set$77
	.byte	0xde
	.byte	0xdd
	.byte	0xd3
	.byte	0xd4
	.byte	0xe
	.uleb128 0
	.align	3
LEFDE35:
LSFDE37:
	.set L$set$78,LEFDE37-LASFDE37
	.long L$set$78
LASFDE37:
	.long	LASFDE37-EH_frame1
	.quad	LFB12372-.
	.set L$set$79,LFE12372-LFB12372
	.quad L$set$79
	.uleb128 0x8
	.quad	0
	.byte	0x4
	.set L$set$80,LCFI41-LFB12372
	.long L$set$80
	.byte	0xe
	.uleb128 0x10
	.byte	0x4
	.set L$set$81,LCFI42-LCFI41
	.long L$set$81
	.byte	0xe
	.uleb128 0
	.align	3
LEFDE37:
LSFDE39:
	.set L$set$82,LEFDE39-LASFDE39
	.long L$set$82
LASFDE39:
	.long	LASFDE39-EH_frame1
	.quad	LFB12373-.
	.set L$set$83,LFE12373-LFB12373
	.quad L$set$83
	.uleb128 0x8
	.quad	0
	.byte	0x4
	.set L$set$84,LCFI43-LFB12373
	.long L$set$84
	.byte	0xe
	.uleb128 0x10
	.byte	0x4
	.set L$set$85,LCFI44-LCFI43
	.long L$set$85
	.byte	0xe
	.uleb128 0
	.align	3
LEFDE39:
LSFDE41:
	.set L$set$86,LEFDE41-LASFDE41
	.long L$set$86
LASFDE41:
	.long	LASFDE41-EH_frame1
	.quad	LFB12374-.
	.set L$set$87,LFE12374-LFB12374
	.quad L$set$87
	.uleb128 0x8
	.quad	0
	.byte	0x4
	.set L$set$88,LCFI45-LFB12374
	.long L$set$88
	.byte	0xe
	.uleb128 0x10
	.byte	0x4
	.set L$set$89,LCFI46-LCFI45
	.long L$set$89
	.byte	0xe
	.uleb128 0
	.align	3
LEFDE41:
LSFDE43:
	.set L$set$90,LEFDE43-LASFDE43
	.long L$set$90
LASFDE43:
	.long	LASFDE43-EH_frame1
	.quad	LFB12375-.
	.set L$set$91,LFE12375-LFB12375
	.quad L$set$91
	.uleb128 0x8
	.quad	0
	.byte	0x4
	.set L$set$92,LCFI47-LFB12375
	.long L$set$92
	.byte	0xe
	.uleb128 0x30
	.byte	0x9d
	.uleb128 0x6
	.byte	0x9e
	.uleb128 0x5
	.byte	0x4
	.set L$set$93,LCFI48-LCFI47
	.long L$set$93
	.byte	0xde
	.byte	0xdd
	.byte	0xe
	.uleb128 0
	.align	3
LEFDE43:
LSFDE45:
	.set L$set$94,LEFDE45-LASFDE45
	.long L$set$94
LASFDE45:
	.long	LASFDE45-EH_frame1
	.quad	LFB12376-.
	.set L$set$95,LFE12376-LFB12376
	.quad L$set$95
	.uleb128 0x8
	.quad	0
	.byte	0x4
	.set L$set$96,LCFI49-LFB12376
	.long L$set$96
	.byte	0xe
	.uleb128 0x30
	.byte	0x9d
	.uleb128 0x6
	.byte	0x9e
	.uleb128 0x5
	.byte	0x4
	.set L$set$97,LCFI50-LCFI49
	.long L$set$97
	.byte	0xde
	.byte	0xdd
	.byte	0xe
	.uleb128 0
	.align	3
LEFDE45:
LSFDE47:
	.set L$set$98,LEFDE47-LASFDE47
	.long L$set$98
LASFDE47:
	.long	LASFDE47-EH_frame1
	.quad	LFB12379-.
	.set L$set$99,LFE12379-LFB12379
	.quad L$set$99
	.uleb128 0x8
	.quad	LLSDA12379-.
	.byte	0x4
	.set L$set$100,LCFI51-LFB12379
	.long L$set$100
	.byte	0xe
	.uleb128 0x40
	.byte	0x9d
	.uleb128 0x8
	.byte	0x9e
	.uleb128 0x7
	.byte	0x4
	.set L$set$101,LCFI52-LCFI51
	.long L$set$101
	.byte	0x93
	.uleb128 0x6
	.byte	0x4
	.set L$set$102,LCFI53-LCFI52
	.long L$set$102
	.byte	0xde
	.byte	0xdd
	.byte	0xd3
	.byte	0xe
	.uleb128 0
	.align	3
LEFDE47:
LSFDE49:
	.set L$set$103,LEFDE49-LASFDE49
	.long L$set$103
LASFDE49:
	.long	LASFDE49-EH_frame1
	.quad	LFB12422-.
	.set L$set$104,LFE12422-LFB12422
	.quad L$set$104
	.uleb128 0x8
	.quad	0
	.byte	0x4
	.set L$set$105,LCFI54-LFB12422
	.long L$set$105
	.byte	0xe
	.uleb128 0x10
	.byte	0x4
	.set L$set$106,LCFI55-LCFI54
	.long L$set$106
	.byte	0xe
	.uleb128 0
	.align	3
LEFDE49:
LSFDE51:
	.set L$set$107,LEFDE51-LASFDE51
	.long L$set$107
LASFDE51:
	.long	LASFDE51-EH_frame1
	.quad	LFB12423-.
	.set L$set$108,LFE12423-LFB12423
	.quad L$set$108
	.uleb128 0x8
	.quad	0
	.byte	0x4
	.set L$set$109,LCFI56-LFB12423
	.long L$set$109
	.byte	0xe
	.uleb128 0x30
	.byte	0x9d
	.uleb128 0x6
	.byte	0x9e
	.uleb128 0x5
	.byte	0x4
	.set L$set$110,LCFI57-LCFI56
	.long L$set$110
	.byte	0xde
	.byte	0xdd
	.byte	0xe
	.uleb128 0
	.align	3
LEFDE51:
LSFDE53:
	.set L$set$111,LEFDE53-LASFDE53
	.long L$set$111
LASFDE53:
	.long	LASFDE53-EH_frame1
	.quad	LFB12444-.
	.set L$set$112,LFE12444-LFB12444
	.quad L$set$112
	.uleb128 0x8
	.quad	0
	.byte	0x4
	.set L$set$113,LCFI58-LFB12444
	.long L$set$113
	.byte	0xe
	.uleb128 0x10
	.byte	0x4
	.set L$set$114,LCFI59-LCFI58
	.long L$set$114
	.byte	0xe
	.uleb128 0
	.align	3
LEFDE53:
LSFDE55:
	.set L$set$115,LEFDE55-LASFDE55
	.long L$set$115
LASFDE55:
	.long	LASFDE55-EH_frame1
	.quad	LFB12448-.
	.set L$set$116,LFE12448-LFB12448
	.quad L$set$116
	.uleb128 0x8
	.quad	0
	.byte	0x4
	.set L$set$117,LCFI60-LFB12448
	.long L$set$117
	.byte	0xe
	.uleb128 0x20
	.byte	0x9d
	.uleb128 0x4
	.byte	0x9e
	.uleb128 0x3
	.byte	0x4
	.set L$set$118,LCFI61-LCFI60
	.long L$set$118
	.byte	0xde
	.byte	0xdd
	.byte	0xe
	.uleb128 0
	.align	3
LEFDE55:
LSFDE57:
	.set L$set$119,LEFDE57-LASFDE57
	.long L$set$119
LASFDE57:
	.long	LASFDE57-EH_frame1
	.quad	LFB12451-.
	.set L$set$120,LFE12451-LFB12451
	.quad L$set$120
	.uleb128 0x8
	.quad	0
	.byte	0x4
	.set L$set$121,LCFI62-LFB12451
	.long L$set$121
	.byte	0xe
	.uleb128 0x30
	.byte	0x9d
	.uleb128 0x6
	.byte	0x9e
	.uleb128 0x5
	.byte	0x4
	.set L$set$122,LCFI63-LCFI62
	.long L$set$122
	.byte	0xde
	.byte	0xdd
	.byte	0xe
	.uleb128 0
	.align	3
LEFDE57:
LSFDE59:
	.set L$set$123,LEFDE59-LASFDE59
	.long L$set$123
LASFDE59:
	.long	LASFDE59-EH_frame1
	.quad	LFB12453-.
	.set L$set$124,LFE12453-LFB12453
	.quad L$set$124
	.uleb128 0x8
	.quad	0
	.byte	0x4
	.set L$set$125,LCFI64-LFB12453
	.long L$set$125
	.byte	0xe
	.uleb128 0x20
	.byte	0x9d
	.uleb128 0x4
	.byte	0x9e
	.uleb128 0x3
	.byte	0x4
	.set L$set$126,LCFI65-LCFI64
	.long L$set$126
	.byte	0xde
	.byte	0xdd
	.byte	0xe
	.uleb128 0
	.align	3
LEFDE59:
LSFDE61:
	.set L$set$127,LEFDE61-LASFDE61
	.long L$set$127
LASFDE61:
	.long	LASFDE61-EH_frame1
	.quad	LFB12454-.
	.set L$set$128,LFE12454-LFB12454
	.quad L$set$128
	.uleb128 0x8
	.quad	0
	.byte	0x4
	.set L$set$129,LCFI66-LFB12454
	.long L$set$129
	.byte	0xe
	.uleb128 0x10
	.byte	0x4
	.set L$set$130,LCFI67-LCFI66
	.long L$set$130
	.byte	0xe
	.uleb128 0
	.align	3
LEFDE61:
LSFDE63:
	.set L$set$131,LEFDE63-LASFDE63
	.long L$set$131
LASFDE63:
	.long	LASFDE63-EH_frame1
	.quad	LFB12459-.
	.set L$set$132,LFE12459-LFB12459
	.quad L$set$132
	.uleb128 0x8
	.quad	0
	.byte	0x4
	.set L$set$133,LCFI68-LFB12459
	.long L$set$133
	.byte	0xe
	.uleb128 0x30
	.byte	0x9d
	.uleb128 0x6
	.byte	0x9e
	.uleb128 0x5
	.byte	0x4
	.set L$set$134,LCFI69-LCFI68
	.long L$set$134
	.byte	0x93
	.uleb128 0x4
	.byte	0x4
	.set L$set$135,LCFI70-LCFI69
	.long L$set$135
	.byte	0xde
	.byte	0xdd
	.byte	0xd3
	.byte	0xe
	.uleb128 0
	.align	3
LEFDE63:
LSFDE65:
	.set L$set$136,LEFDE65-LASFDE65
	.long L$set$136
LASFDE65:
	.long	LASFDE65-EH_frame1
	.quad	LFB12460-.
	.set L$set$137,LFE12460-LFB12460
	.quad L$set$137
	.uleb128 0x8
	.quad	0
	.byte	0x4
	.set L$set$138,LCFI71-LFB12460
	.long L$set$138
	.byte	0xe
	.uleb128 0x10
	.byte	0x4
	.set L$set$139,LCFI72-LCFI71
	.long L$set$139
	.byte	0xe
	.uleb128 0
	.align	3
LEFDE65:
LSFDE67:
	.set L$set$140,LEFDE67-LASFDE67
	.long L$set$140
LASFDE67:
	.long	LASFDE67-EH_frame1
	.quad	LFB12461-.
	.set L$set$141,LFE12461-LFB12461
	.quad L$set$141
	.uleb128 0x8
	.quad	0
	.byte	0x4
	.set L$set$142,LCFI73-LFB12461
	.long L$set$142
	.byte	0xe
	.uleb128 0x10
	.byte	0x4
	.set L$set$143,LCFI74-LCFI73
	.long L$set$143
	.byte	0xe
	.uleb128 0
	.align	3
LEFDE67:
LSFDE69:
	.set L$set$144,LEFDE69-LASFDE69
	.long L$set$144
LASFDE69:
	.long	LASFDE69-EH_frame1
	.quad	LFB12462-.
	.set L$set$145,LFE12462-LFB12462
	.quad L$set$145
	.uleb128 0x8
	.quad	0
	.byte	0x4
	.set L$set$146,LCFI75-LFB12462
	.long L$set$146
	.byte	0xe
	.uleb128 0x10
	.byte	0x4
	.set L$set$147,LCFI76-LCFI75
	.long L$set$147
	.byte	0xe
	.uleb128 0
	.align	3
LEFDE69:
LSFDE71:
	.set L$set$148,LEFDE71-LASFDE71
	.long L$set$148
LASFDE71:
	.long	LASFDE71-EH_frame1
	.quad	LFB12463-.
	.set L$set$149,LFE12463-LFB12463
	.quad L$set$149
	.uleb128 0x8
	.quad	0
	.byte	0x4
	.set L$set$150,LCFI77-LFB12463
	.long L$set$150
	.byte	0xe
	.uleb128 0x30
	.byte	0x9d
	.uleb128 0x6
	.byte	0x9e
	.uleb128 0x5
	.byte	0x4
	.set L$set$151,LCFI78-LCFI77
	.long L$set$151
	.byte	0xde
	.byte	0xdd
	.byte	0xe
	.uleb128 0
	.align	3
LEFDE71:
LSFDE73:
	.set L$set$152,LEFDE73-LASFDE73
	.long L$set$152
LASFDE73:
	.long	LASFDE73-EH_frame1
	.quad	LFB12751-.
	.set L$set$153,LFE12751-LFB12751
	.quad L$set$153
	.uleb128 0x8
	.quad	0
	.byte	0x4
	.set L$set$154,LCFI79-LFB12751
	.long L$set$154
	.byte	0xe
	.uleb128 0x30
	.byte	0x9d
	.uleb128 0x6
	.byte	0x9e
	.uleb128 0x5
	.byte	0x4
	.set L$set$155,LCFI80-LCFI79
	.long L$set$155
	.byte	0x93
	.uleb128 0x4
	.byte	0x4
	.set L$set$156,LCFI81-LCFI80
	.long L$set$156
	.byte	0xde
	.byte	0xdd
	.byte	0xd3
	.byte	0xe
	.uleb128 0
	.align	3
LEFDE73:
LSFDE75:
	.set L$set$157,LEFDE75-LASFDE75
	.long L$set$157
LASFDE75:
	.long	LASFDE75-EH_frame1
	.quad	LFB12752-.
	.set L$set$158,LFE12752-LFB12752
	.quad L$set$158
	.uleb128 0x8
	.quad	0
	.byte	0x4
	.set L$set$159,LCFI82-LFB12752
	.long L$set$159
	.byte	0xe
	.uleb128 0x10
	.byte	0x4
	.set L$set$160,LCFI83-LCFI82
	.long L$set$160
	.byte	0xe
	.uleb128 0
	.align	3
LEFDE75:
LSFDE77:
	.set L$set$161,LEFDE77-LASFDE77
	.long L$set$161
LASFDE77:
	.long	LASFDE77-EH_frame1
	.quad	LFB12765-.
	.set L$set$162,LFE12765-LFB12765
	.quad L$set$162
	.uleb128 0x8
	.quad	LLSDA12765-.
	.byte	0x4
	.set L$set$163,LCFI84-LFB12765
	.long L$set$163
	.byte	0xe
	.uleb128 0x30
	.byte	0x9d
	.uleb128 0x6
	.byte	0x9e
	.uleb128 0x5
	.byte	0x4
	.set L$set$164,LCFI85-LCFI84
	.long L$set$164
	.byte	0x93
	.uleb128 0x4
	.byte	0x4
	.set L$set$165,LCFI86-LCFI85
	.long L$set$165
	.byte	0xde
	.byte	0xdd
	.byte	0xd3
	.byte	0xe
	.uleb128 0
	.align	3
LEFDE77:
LSFDE79:
	.set L$set$166,LEFDE79-LASFDE79
	.long L$set$166
LASFDE79:
	.long	LASFDE79-EH_frame1
	.quad	LFB12770-.
	.set L$set$167,LFE12770-LFB12770
	.quad L$set$167
	.uleb128 0x8
	.quad	0
	.byte	0x4
	.set L$set$168,LCFI87-LFB12770
	.long L$set$168
	.byte	0xe
	.uleb128 0x30
	.byte	0x9d
	.uleb128 0x6
	.byte	0x9e
	.uleb128 0x5
	.byte	0x4
	.set L$set$169,LCFI88-LCFI87
	.long L$set$169
	.byte	0xde
	.byte	0xdd
	.byte	0xe
	.uleb128 0
	.align	3
LEFDE79:
LSFDE81:
	.set L$set$170,LEFDE81-LASFDE81
	.long L$set$170
LASFDE81:
	.long	LASFDE81-EH_frame1
	.quad	LFB12832-.
	.set L$set$171,LFE12832-LFB12832
	.quad L$set$171
	.uleb128 0x8
	.quad	0
	.byte	0x4
	.set L$set$172,LCFI89-LFB12832
	.long L$set$172
	.byte	0xe
	.uleb128 0x40
	.byte	0x9d
	.uleb128 0x8
	.byte	0x9e
	.uleb128 0x7
	.byte	0x4
	.set L$set$173,LCFI90-LCFI89
	.long L$set$173
	.byte	0x93
	.uleb128 0x6
	.byte	0x4
	.set L$set$174,LCFI91-LCFI90
	.long L$set$174
	.byte	0xde
	.byte	0xdd
	.byte	0xd3
	.byte	0xe
	.uleb128 0
	.align	3
LEFDE81:
LSFDE83:
	.set L$set$175,LEFDE83-LASFDE83
	.long L$set$175
LASFDE83:
	.long	LASFDE83-EH_frame1
	.quad	LFB12836-.
	.set L$set$176,LFE12836-LFB12836
	.quad L$set$176
	.uleb128 0x8
	.quad	0
	.byte	0x4
	.set L$set$177,LCFI92-LFB12836
	.long L$set$177
	.byte	0xe
	.uleb128 0x20
	.byte	0x9d
	.uleb128 0x4
	.byte	0x9e
	.uleb128 0x3
	.byte	0x4
	.set L$set$178,LCFI93-LCFI92
	.long L$set$178
	.byte	0xde
	.byte	0xdd
	.byte	0xe
	.uleb128 0
	.align	3
LEFDE83:
LSFDE85:
	.set L$set$179,LEFDE85-LASFDE85
	.long L$set$179
LASFDE85:
	.long	LASFDE85-EH_frame1
	.quad	LFB12837-.
	.set L$set$180,LFE12837-LFB12837
	.quad L$set$180
	.uleb128 0x8
	.quad	LLSDA12837-.
	.byte	0x4
	.set L$set$181,LCFI94-LFB12837
	.long L$set$181
	.byte	0xe
	.uleb128 0x40
	.byte	0x9d
	.uleb128 0x8
	.byte	0x9e
	.uleb128 0x7
	.byte	0x4
	.set L$set$182,LCFI95-LCFI94
	.long L$set$182
	.byte	0x93
	.uleb128 0x6
	.byte	0x4
	.set L$set$183,LCFI96-LCFI95
	.long L$set$183
	.byte	0xde
	.byte	0xdd
	.byte	0xd3
	.byte	0xe
	.uleb128 0
	.align	3
LEFDE85:
LSFDE87:
	.set L$set$184,LEFDE87-LASFDE87
	.long L$set$184
LASFDE87:
	.long	LASFDE87-EH_frame1
	.quad	LFB12840-.
	.set L$set$185,LFE12840-LFB12840
	.quad L$set$185
	.uleb128 0x8
	.quad	LLSDA12840-.
	.byte	0x4
	.set L$set$186,LCFI97-LFB12840
	.long L$set$186
	.byte	0xe
	.uleb128 0x20
	.byte	0x9d
	.uleb128 0x4
	.byte	0x9e
	.uleb128 0x3
	.byte	0x4
	.set L$set$187,LCFI98-LCFI97
	.long L$set$187
	.byte	0xde
	.byte	0xdd
	.byte	0xe
	.uleb128 0
	.align	3
LEFDE87:
LSFDE89:
	.set L$set$188,LEFDE89-LASFDE89
	.long L$set$188
LASFDE89:
	.long	LASFDE89-EH_frame1
	.quad	LFB12842-.
	.set L$set$189,LFE12842-LFB12842
	.quad L$set$189
	.uleb128 0x8
	.quad	0
	.byte	0x4
	.set L$set$190,LCFI99-LFB12842
	.long L$set$190
	.byte	0xe
	.uleb128 0x40
	.byte	0x9d
	.uleb128 0x8
	.byte	0x9e
	.uleb128 0x7
	.byte	0x4
	.set L$set$191,LCFI100-LCFI99
	.long L$set$191
	.byte	0x93
	.uleb128 0x6
	.byte	0x4
	.set L$set$192,LCFI101-LCFI100
	.long L$set$192
	.byte	0xde
	.byte	0xdd
	.byte	0xd3
	.byte	0xe
	.uleb128 0
	.align	3
LEFDE89:
LSFDE91:
	.set L$set$193,LEFDE91-LASFDE91
	.long L$set$193
LASFDE91:
	.long	LASFDE91-EH_frame1
	.quad	LFB12843-.
	.set L$set$194,LFE12843-LFB12843
	.quad L$set$194
	.uleb128 0x8
	.quad	0
	.byte	0x4
	.set L$set$195,LCFI102-LFB12843
	.long L$set$195
	.byte	0xe
	.uleb128 0x10
	.byte	0x4
	.set L$set$196,LCFI103-LCFI102
	.long L$set$196
	.byte	0xe
	.uleb128 0
	.align	3
LEFDE91:
LSFDE93:
	.set L$set$197,LEFDE93-LASFDE93
	.long L$set$197
LASFDE93:
	.long	LASFDE93-EH_frame1
	.quad	LFB12844-.
	.set L$set$198,LFE12844-LFB12844
	.quad L$set$198
	.uleb128 0x8
	.quad	0
	.byte	0x4
	.set L$set$199,LCFI104-LFB12844
	.long L$set$199
	.byte	0xe
	.uleb128 0x30
	.byte	0x9d
	.uleb128 0x6
	.byte	0x9e
	.uleb128 0x5
	.byte	0x4
	.set L$set$200,LCFI105-LCFI104
	.long L$set$200
	.byte	0xde
	.byte	0xdd
	.byte	0xe
	.uleb128 0
	.align	3
LEFDE93:
LSFDE95:
	.set L$set$201,LEFDE95-LASFDE95
	.long L$set$201
LASFDE95:
	.long	LASFDE95-EH_frame1
	.quad	LFB12846-.
	.set L$set$202,LFE12846-LFB12846
	.quad L$set$202
	.uleb128 0x8
	.quad	0
	.byte	0x4
	.set L$set$203,LCFI106-LFB12846
	.long L$set$203
	.byte	0xe
	.uleb128 0x10
	.byte	0x4
	.set L$set$204,LCFI107-LCFI106
	.long L$set$204
	.byte	0xe
	.uleb128 0
	.align	3
LEFDE95:
LSFDE97:
	.set L$set$205,LEFDE97-LASFDE97
	.long L$set$205
LASFDE97:
	.long	LASFDE97-EH_frame1
	.quad	LFB12848-.
	.set L$set$206,LFE12848-LFB12848
	.quad L$set$206
	.uleb128 0x8
	.quad	0
	.byte	0x4
	.set L$set$207,LCFI108-LFB12848
	.long L$set$207
	.byte	0xe
	.uleb128 0x40
	.byte	0x9d
	.uleb128 0x8
	.byte	0x9e
	.uleb128 0x7
	.byte	0x4
	.set L$set$208,LCFI109-LCFI108
	.long L$set$208
	.byte	0x93
	.uleb128 0x6
	.byte	0x4
	.set L$set$209,LCFI110-LCFI109
	.long L$set$209
	.byte	0xde
	.byte	0xdd
	.byte	0xd3
	.byte	0xe
	.uleb128 0
	.align	3
LEFDE97:
LSFDE99:
	.set L$set$210,LEFDE99-LASFDE99
	.long L$set$210
LASFDE99:
	.long	LASFDE99-EH_frame1
	.quad	LFB12852-.
	.set L$set$211,LFE12852-LFB12852
	.quad L$set$211
	.uleb128 0x8
	.quad	0
	.byte	0x4
	.set L$set$212,LCFI111-LFB12852
	.long L$set$212
	.byte	0xe
	.uleb128 0x20
	.byte	0x9d
	.uleb128 0x4
	.byte	0x9e
	.uleb128 0x3
	.byte	0x4
	.set L$set$213,LCFI112-LCFI111
	.long L$set$213
	.byte	0xde
	.byte	0xdd
	.byte	0xe
	.uleb128 0
	.align	3
LEFDE99:
LSFDE101:
	.set L$set$214,LEFDE101-LASFDE101
	.long L$set$214
LASFDE101:
	.long	LASFDE101-EH_frame1
	.quad	LFB12853-.
	.set L$set$215,LFE12853-LFB12853
	.quad L$set$215
	.uleb128 0x8
	.quad	LLSDA12853-.
	.byte	0x4
	.set L$set$216,LCFI113-LFB12853
	.long L$set$216
	.byte	0xe
	.uleb128 0x40
	.byte	0x9d
	.uleb128 0x8
	.byte	0x9e
	.uleb128 0x7
	.byte	0x4
	.set L$set$217,LCFI114-LCFI113
	.long L$set$217
	.byte	0x93
	.uleb128 0x6
	.byte	0x4
	.set L$set$218,LCFI115-LCFI114
	.long L$set$218
	.byte	0xde
	.byte	0xdd
	.byte	0xd3
	.byte	0xe
	.uleb128 0
	.align	3
LEFDE101:
LSFDE103:
	.set L$set$219,LEFDE103-LASFDE103
	.long L$set$219
LASFDE103:
	.long	LASFDE103-EH_frame1
	.quad	LFB12856-.
	.set L$set$220,LFE12856-LFB12856
	.quad L$set$220
	.uleb128 0x8
	.quad	LLSDA12856-.
	.byte	0x4
	.set L$set$221,LCFI116-LFB12856
	.long L$set$221
	.byte	0xe
	.uleb128 0x20
	.byte	0x9d
	.uleb128 0x4
	.byte	0x9e
	.uleb128 0x3
	.byte	0x4
	.set L$set$222,LCFI117-LCFI116
	.long L$set$222
	.byte	0xde
	.byte	0xdd
	.byte	0xe
	.uleb128 0
	.align	3
LEFDE103:
LSFDE105:
	.set L$set$223,LEFDE105-LASFDE105
	.long L$set$223
LASFDE105:
	.long	LASFDE105-EH_frame1
	.quad	LFB12858-.
	.set L$set$224,LFE12858-LFB12858
	.quad L$set$224
	.uleb128 0x8
	.quad	0
	.byte	0x4
	.set L$set$225,LCFI118-LFB12858
	.long L$set$225
	.byte	0xe
	.uleb128 0x40
	.byte	0x9d
	.uleb128 0x8
	.byte	0x9e
	.uleb128 0x7
	.byte	0x4
	.set L$set$226,LCFI119-LCFI118
	.long L$set$226
	.byte	0x93
	.uleb128 0x6
	.byte	0x4
	.set L$set$227,LCFI120-LCFI119
	.long L$set$227
	.byte	0xde
	.byte	0xdd
	.byte	0xd3
	.byte	0xe
	.uleb128 0
	.align	3
LEFDE105:
LSFDE107:
	.set L$set$228,LEFDE107-LASFDE107
	.long L$set$228
LASFDE107:
	.long	LASFDE107-EH_frame1
	.quad	LFB12859-.
	.set L$set$229,LFE12859-LFB12859
	.quad L$set$229
	.uleb128 0x8
	.quad	0
	.byte	0x4
	.set L$set$230,LCFI121-LFB12859
	.long L$set$230
	.byte	0xe
	.uleb128 0x10
	.byte	0x4
	.set L$set$231,LCFI122-LCFI121
	.long L$set$231
	.byte	0xe
	.uleb128 0
	.align	3
LEFDE107:
LSFDE109:
	.set L$set$232,LEFDE109-LASFDE109
	.long L$set$232
LASFDE109:
	.long	LASFDE109-EH_frame1
	.quad	LFB12860-.
	.set L$set$233,LFE12860-LFB12860
	.quad L$set$233
	.uleb128 0x8
	.quad	0
	.byte	0x4
	.set L$set$234,LCFI123-LFB12860
	.long L$set$234
	.byte	0xe
	.uleb128 0x30
	.byte	0x9d
	.uleb128 0x6
	.byte	0x9e
	.uleb128 0x5
	.byte	0x4
	.set L$set$235,LCFI124-LCFI123
	.long L$set$235
	.byte	0xde
	.byte	0xdd
	.byte	0xe
	.uleb128 0
	.align	3
LEFDE109:
LSFDE111:
	.set L$set$236,LEFDE111-LASFDE111
	.long L$set$236
LASFDE111:
	.long	LASFDE111-EH_frame1
	.quad	LFB12863-.
	.set L$set$237,LFE12863-LFB12863
	.quad L$set$237
	.uleb128 0x8
	.quad	0
	.byte	0x4
	.set L$set$238,LCFI125-LFB12863
	.long L$set$238
	.byte	0xe
	.uleb128 0x10
	.byte	0x4
	.set L$set$239,LCFI126-LCFI125
	.long L$set$239
	.byte	0xe
	.uleb128 0
	.align	3
LEFDE111:
LSFDE113:
	.set L$set$240,LEFDE113-LASFDE113
	.long L$set$240
LASFDE113:
	.long	LASFDE113-EH_frame1
	.quad	LFB12864-.
	.set L$set$241,LFE12864-LFB12864
	.quad L$set$241
	.uleb128 0x8
	.quad	0
	.byte	0x4
	.set L$set$242,LCFI127-LFB12864
	.long L$set$242
	.byte	0xe
	.uleb128 0x30
	.byte	0x9d
	.uleb128 0x6
	.byte	0x9e
	.uleb128 0x5
	.byte	0x4
	.set L$set$243,LCFI128-LCFI127
	.long L$set$243
	.byte	0xde
	.byte	0xdd
	.byte	0xe
	.uleb128 0
	.align	3
LEFDE113:
LSFDE115:
	.set L$set$244,LEFDE115-LASFDE115
	.long L$set$244
LASFDE115:
	.long	LASFDE115-EH_frame1
	.quad	LFB12888-.
	.set L$set$245,LFE12888-LFB12888
	.quad L$set$245
	.uleb128 0x8
	.quad	0
	.byte	0x4
	.set L$set$246,LCFI129-LFB12888
	.long L$set$246
	.byte	0xe
	.uleb128 0x10
	.byte	0x4
	.set L$set$247,LCFI130-LCFI129
	.long L$set$247
	.byte	0xe
	.uleb128 0
	.align	3
LEFDE115:
LSFDE117:
	.set L$set$248,LEFDE117-LASFDE117
	.long L$set$248
LASFDE117:
	.long	LASFDE117-EH_frame1
	.quad	LFB12889-.
	.set L$set$249,LFE12889-LFB12889
	.quad L$set$249
	.uleb128 0x8
	.quad	0
	.byte	0x4
	.set L$set$250,LCFI131-LFB12889
	.long L$set$250
	.byte	0xe
	.uleb128 0x30
	.byte	0x9d
	.uleb128 0x6
	.byte	0x9e
	.uleb128 0x5
	.byte	0x4
	.set L$set$251,LCFI132-LCFI131
	.long L$set$251
	.byte	0xde
	.byte	0xdd
	.byte	0xe
	.uleb128 0
	.align	3
LEFDE117:
LSFDE119:
	.set L$set$252,LEFDE119-LASFDE119
	.long L$set$252
LASFDE119:
	.long	LASFDE119-EH_frame1
	.quad	LFB12890-.
	.set L$set$253,LFE12890-LFB12890
	.quad L$set$253
	.uleb128 0x8
	.quad	0
	.byte	0x4
	.set L$set$254,LCFI133-LFB12890
	.long L$set$254
	.byte	0xe
	.uleb128 0x10
	.byte	0x4
	.set L$set$255,LCFI134-LCFI133
	.long L$set$255
	.byte	0xe
	.uleb128 0
	.align	3
LEFDE119:
LSFDE121:
	.set L$set$256,LEFDE121-LASFDE121
	.long L$set$256
LASFDE121:
	.long	LASFDE121-EH_frame1
	.quad	LFB12891-.
	.set L$set$257,LFE12891-LFB12891
	.quad L$set$257
	.uleb128 0x8
	.quad	0
	.byte	0x4
	.set L$set$258,LCFI135-LFB12891
	.long L$set$258
	.byte	0xe
	.uleb128 0x30
	.byte	0x9d
	.uleb128 0x6
	.byte	0x9e
	.uleb128 0x5
	.byte	0x4
	.set L$set$259,LCFI136-LCFI135
	.long L$set$259
	.byte	0xde
	.byte	0xdd
	.byte	0xe
	.uleb128 0
	.align	3
LEFDE121:
LSFDE123:
	.set L$set$260,LEFDE123-LASFDE123
	.long L$set$260
LASFDE123:
	.long	LASFDE123-EH_frame1
	.quad	LFB12910-.
	.set L$set$261,LFE12910-LFB12910
	.quad L$set$261
	.uleb128 0x8
	.quad	0
	.byte	0x4
	.set L$set$262,LCFI137-LFB12910
	.long L$set$262
	.byte	0xe
	.uleb128 0x20
	.byte	0x9d
	.uleb128 0x4
	.byte	0x9e
	.uleb128 0x3
	.byte	0x4
	.set L$set$263,LCFI138-LCFI137
	.long L$set$263
	.byte	0xde
	.byte	0xdd
	.byte	0xe
	.uleb128 0
	.align	3
LEFDE123:
LSFDE125:
	.set L$set$264,LEFDE125-LASFDE125
	.long L$set$264
LASFDE125:
	.long	LASFDE125-EH_frame1
	.quad	LFB12914-.
	.set L$set$265,LFE12914-LFB12914
	.quad L$set$265
	.uleb128 0x8
	.quad	0
	.byte	0x4
	.set L$set$266,LCFI139-LFB12914
	.long L$set$266
	.byte	0xe
	.uleb128 0x40
	.byte	0x9d
	.uleb128 0x8
	.byte	0x9e
	.uleb128 0x7
	.byte	0x4
	.set L$set$267,LCFI140-LCFI139
	.long L$set$267
	.byte	0x93
	.uleb128 0x6
	.byte	0x4
	.set L$set$268,LCFI141-LCFI140
	.long L$set$268
	.byte	0xde
	.byte	0xdd
	.byte	0xd3
	.byte	0xe
	.uleb128 0
	.align	3
LEFDE125:
LSFDE127:
	.set L$set$269,LEFDE127-LASFDE127
	.long L$set$269
LASFDE127:
	.long	LASFDE127-EH_frame1
	.quad	LFB12916-.
	.set L$set$270,LFE12916-LFB12916
	.quad L$set$270
	.uleb128 0x8
	.quad	0
	.byte	0x4
	.set L$set$271,LCFI142-LFB12916
	.long L$set$271
	.byte	0xe
	.uleb128 0x20
	.byte	0x9d
	.uleb128 0x4
	.byte	0x9e
	.uleb128 0x3
	.byte	0x4
	.set L$set$272,LCFI143-LCFI142
	.long L$set$272
	.byte	0xde
	.byte	0xdd
	.byte	0xe
	.uleb128 0
	.align	3
LEFDE127:
LSFDE129:
	.set L$set$273,LEFDE129-LASFDE129
	.long L$set$273
LASFDE129:
	.long	LASFDE129-EH_frame1
	.quad	LFB13054-.
	.set L$set$274,LFE13054-LFB13054
	.quad L$set$274
	.uleb128 0x8
	.quad	0
	.byte	0x4
	.set L$set$275,LCFI144-LFB13054
	.long L$set$275
	.byte	0xe
	.uleb128 0x30
	.byte	0x9d
	.uleb128 0x6
	.byte	0x9e
	.uleb128 0x5
	.byte	0x4
	.set L$set$276,LCFI145-LCFI144
	.long L$set$276
	.byte	0x93
	.uleb128 0x4
	.byte	0x4
	.set L$set$277,LCFI146-LCFI145
	.long L$set$277
	.byte	0xde
	.byte	0xdd
	.byte	0xd3
	.byte	0xe
	.uleb128 0
	.align	3
LEFDE129:
LSFDE131:
	.set L$set$278,LEFDE131-LASFDE131
	.long L$set$278
LASFDE131:
	.long	LASFDE131-EH_frame1
	.quad	LFB13059-.
	.set L$set$279,LFE13059-LFB13059
	.quad L$set$279
	.uleb128 0x8
	.quad	0
	.byte	0x4
	.set L$set$280,LCFI147-LFB13059
	.long L$set$280
	.byte	0xe
	.uleb128 0x50
	.byte	0x9d
	.uleb128 0xa
	.byte	0x9e
	.uleb128 0x9
	.byte	0x4
	.set L$set$281,LCFI148-LCFI147
	.long L$set$281
	.byte	0xde
	.byte	0xdd
	.byte	0xe
	.uleb128 0
	.align	3
LEFDE131:
LSFDE133:
	.set L$set$282,LEFDE133-LASFDE133
	.long L$set$282
LASFDE133:
	.long	LASFDE133-EH_frame1
	.quad	LFB13099-.
	.set L$set$283,LFE13099-LFB13099
	.quad L$set$283
	.uleb128 0x8
	.quad	0
	.byte	0x4
	.set L$set$284,LCFI149-LFB13099
	.long L$set$284
	.byte	0xe
	.uleb128 0x10
	.byte	0x4
	.set L$set$285,LCFI150-LCFI149
	.long L$set$285
	.byte	0xe
	.uleb128 0
	.align	3
LEFDE133:
LSFDE135:
	.set L$set$286,LEFDE135-LASFDE135
	.long L$set$286
LASFDE135:
	.long	LASFDE135-EH_frame1
	.quad	LFB13098-.
	.set L$set$287,LFE13098-LFB13098
	.quad L$set$287
	.uleb128 0x8
	.quad	0
	.byte	0x4
	.set L$set$288,LCFI151-LFB13098
	.long L$set$288
	.byte	0xe
	.uleb128 0x30
	.byte	0x9d
	.uleb128 0x6
	.byte	0x9e
	.uleb128 0x5
	.byte	0x4
	.set L$set$289,LCFI152-LCFI151
	.long L$set$289
	.byte	0xde
	.byte	0xdd
	.byte	0xe
	.uleb128 0
	.align	3
LEFDE135:
LSFDE137:
	.set L$set$290,LEFDE137-LASFDE137
	.long L$set$290
LASFDE137:
	.long	LASFDE137-EH_frame1
	.quad	LFB13102-.
	.set L$set$291,LFE13102-LFB13102
	.quad L$set$291
	.uleb128 0x8
	.quad	0
	.byte	0x4
	.set L$set$292,LCFI153-LFB13102
	.long L$set$292
	.byte	0xe
	.uleb128 0x20
	.byte	0x9d
	.uleb128 0x4
	.byte	0x9e
	.uleb128 0x3
	.byte	0x4
	.set L$set$293,LCFI154-LCFI153
	.long L$set$293
	.byte	0xde
	.byte	0xdd
	.byte	0xe
	.uleb128 0
	.align	3
LEFDE137:
LSFDE139:
	.set L$set$294,LEFDE139-LASFDE139
	.long L$set$294
LASFDE139:
	.long	LASFDE139-EH_frame1
	.quad	LFB13103-.
	.set L$set$295,LFE13103-LFB13103
	.quad L$set$295
	.uleb128 0x8
	.quad	0
	.byte	0x4
	.set L$set$296,LCFI155-LFB13103
	.long L$set$296
	.byte	0xe
	.uleb128 0x20
	.byte	0x9d
	.uleb128 0x4
	.byte	0x9e
	.uleb128 0x3
	.byte	0x4
	.set L$set$297,LCFI156-LCFI155
	.long L$set$297
	.byte	0xde
	.byte	0xdd
	.byte	0xe
	.uleb128 0
	.align	3
LEFDE139:
LSFDE141:
	.set L$set$298,LEFDE141-LASFDE141
	.long L$set$298
LASFDE141:
	.long	LASFDE141-EH_frame1
	.quad	LFB13104-.
	.set L$set$299,LFE13104-LFB13104
	.quad L$set$299
	.uleb128 0x8
	.quad	0
	.byte	0x4
	.set L$set$300,LCFI157-LFB13104
	.long L$set$300
	.byte	0xe
	.uleb128 0x30
	.byte	0x9d
	.uleb128 0x6
	.byte	0x9e
	.uleb128 0x5
	.byte	0x4
	.set L$set$301,LCFI158-LCFI157
	.long L$set$301
	.byte	0xde
	.byte	0xdd
	.byte	0xe
	.uleb128 0
	.align	3
LEFDE141:
LSFDE143:
	.set L$set$302,LEFDE143-LASFDE143
	.long L$set$302
LASFDE143:
	.long	LASFDE143-EH_frame1
	.quad	LFB13105-.
	.set L$set$303,LFE13105-LFB13105
	.quad L$set$303
	.uleb128 0x8
	.quad	0
	.byte	0x4
	.set L$set$304,LCFI159-LFB13105
	.long L$set$304
	.byte	0xe
	.uleb128 0x30
	.byte	0x9d
	.uleb128 0x6
	.byte	0x9e
	.uleb128 0x5
	.byte	0x4
	.set L$set$305,LCFI160-LCFI159
	.long L$set$305
	.byte	0xde
	.byte	0xdd
	.byte	0xe
	.uleb128 0
	.align	3
LEFDE143:
LSFDE145:
	.set L$set$306,LEFDE145-LASFDE145
	.long L$set$306
LASFDE145:
	.long	LASFDE145-EH_frame1
	.quad	LFB13106-.
	.set L$set$307,LFE13106-LFB13106
	.quad L$set$307
	.uleb128 0x8
	.quad	0
	.byte	0x4
	.set L$set$308,LCFI161-LFB13106
	.long L$set$308
	.byte	0xe
	.uleb128 0x20
	.byte	0x9d
	.uleb128 0x4
	.byte	0x9e
	.uleb128 0x3
	.byte	0x4
	.set L$set$309,LCFI162-LCFI161
	.long L$set$309
	.byte	0xde
	.byte	0xdd
	.byte	0xe
	.uleb128 0
	.align	3
LEFDE145:
LSFDE147:
	.set L$set$310,LEFDE147-LASFDE147
	.long L$set$310
LASFDE147:
	.long	LASFDE147-EH_frame1
	.quad	LFB13108-.
	.set L$set$311,LFE13108-LFB13108
	.quad L$set$311
	.uleb128 0x8
	.quad	0
	.byte	0x4
	.set L$set$312,LCFI163-LFB13108
	.long L$set$312
	.byte	0xe
	.uleb128 0x10
	.byte	0x4
	.set L$set$313,LCFI164-LCFI163
	.long L$set$313
	.byte	0xe
	.uleb128 0
	.align	3
LEFDE147:
LSFDE149:
	.set L$set$314,LEFDE149-LASFDE149
	.long L$set$314
LASFDE149:
	.long	LASFDE149-EH_frame1
	.quad	LFB13107-.
	.set L$set$315,LFE13107-LFB13107
	.quad L$set$315
	.uleb128 0x8
	.quad	0
	.byte	0x4
	.set L$set$316,LCFI165-LFB13107
	.long L$set$316
	.byte	0xe
	.uleb128 0x30
	.byte	0x9d
	.uleb128 0x6
	.byte	0x9e
	.uleb128 0x5
	.byte	0x4
	.set L$set$317,LCFI166-LCFI165
	.long L$set$317
	.byte	0xde
	.byte	0xdd
	.byte	0xe
	.uleb128 0
	.align	3
LEFDE149:
LSFDE151:
	.set L$set$318,LEFDE151-LASFDE151
	.long L$set$318
LASFDE151:
	.long	LASFDE151-EH_frame1
	.quad	LFB13110-.
	.set L$set$319,LFE13110-LFB13110
	.quad L$set$319
	.uleb128 0x8
	.quad	0
	.byte	0x4
	.set L$set$320,LCFI167-LFB13110
	.long L$set$320
	.byte	0xe
	.uleb128 0x20
	.byte	0x9d
	.uleb128 0x4
	.byte	0x9e
	.uleb128 0x3
	.byte	0x4
	.set L$set$321,LCFI168-LCFI167
	.long L$set$321
	.byte	0xde
	.byte	0xdd
	.byte	0xe
	.uleb128 0
	.align	3
LEFDE151:
LSFDE153:
	.set L$set$322,LEFDE153-LASFDE153
	.long L$set$322
LASFDE153:
	.long	LASFDE153-EH_frame1
	.quad	LFB13111-.
	.set L$set$323,LFE13111-LFB13111
	.quad L$set$323
	.uleb128 0x8
	.quad	0
	.byte	0x4
	.set L$set$324,LCFI169-LFB13111
	.long L$set$324
	.byte	0xe
	.uleb128 0x20
	.byte	0x9d
	.uleb128 0x4
	.byte	0x9e
	.uleb128 0x3
	.byte	0x4
	.set L$set$325,LCFI170-LCFI169
	.long L$set$325
	.byte	0xde
	.byte	0xdd
	.byte	0xe
	.uleb128 0
	.align	3
LEFDE153:
LSFDE155:
	.set L$set$326,LEFDE155-LASFDE155
	.long L$set$326
LASFDE155:
	.long	LASFDE155-EH_frame1
	.quad	LFB13114-.
	.set L$set$327,LFE13114-LFB13114
	.quad L$set$327
	.uleb128 0x8
	.quad	0
	.byte	0x4
	.set L$set$328,LCFI171-LFB13114
	.long L$set$328
	.byte	0xe
	.uleb128 0x20
	.byte	0x9d
	.uleb128 0x4
	.byte	0x9e
	.uleb128 0x3
	.byte	0x4
	.set L$set$329,LCFI172-LCFI171
	.long L$set$329
	.byte	0xde
	.byte	0xdd
	.byte	0xe
	.uleb128 0
	.align	3
LEFDE155:
LSFDE157:
	.set L$set$330,LEFDE157-LASFDE157
	.long L$set$330
LASFDE157:
	.long	LASFDE157-EH_frame1
	.quad	LFB13115-.
	.set L$set$331,LFE13115-LFB13115
	.quad L$set$331
	.uleb128 0x8
	.quad	0
	.byte	0x4
	.set L$set$332,LCFI173-LFB13115
	.long L$set$332
	.byte	0xe
	.uleb128 0x20
	.byte	0x9d
	.uleb128 0x4
	.byte	0x9e
	.uleb128 0x3
	.byte	0x4
	.set L$set$333,LCFI174-LCFI173
	.long L$set$333
	.byte	0xde
	.byte	0xdd
	.byte	0xe
	.uleb128 0
	.align	3
LEFDE157:
LSFDE159:
	.set L$set$334,LEFDE159-LASFDE159
	.long L$set$334
LASFDE159:
	.long	LASFDE159-EH_frame1
	.quad	LFB13116-.
	.set L$set$335,LFE13116-LFB13116
	.quad L$set$335
	.uleb128 0x8
	.quad	0
	.byte	0x4
	.set L$set$336,LCFI175-LFB13116
	.long L$set$336
	.byte	0xe
	.uleb128 0x30
	.byte	0x9d
	.uleb128 0x6
	.byte	0x9e
	.uleb128 0x5
	.byte	0x4
	.set L$set$337,LCFI176-LCFI175
	.long L$set$337
	.byte	0xde
	.byte	0xdd
	.byte	0xe
	.uleb128 0
	.align	3
LEFDE159:
LSFDE161:
	.set L$set$338,LEFDE161-LASFDE161
	.long L$set$338
LASFDE161:
	.long	LASFDE161-EH_frame1
	.quad	LFB13117-.
	.set L$set$339,LFE13117-LFB13117
	.quad L$set$339
	.uleb128 0x8
	.quad	0
	.byte	0x4
	.set L$set$340,LCFI177-LFB13117
	.long L$set$340
	.byte	0xe
	.uleb128 0x30
	.byte	0x9d
	.uleb128 0x6
	.byte	0x9e
	.uleb128 0x5
	.byte	0x4
	.set L$set$341,LCFI178-LCFI177
	.long L$set$341
	.byte	0xde
	.byte	0xdd
	.byte	0xe
	.uleb128 0
	.align	3
LEFDE161:
LSFDE163:
	.set L$set$342,LEFDE163-LASFDE163
	.long L$set$342
LASFDE163:
	.long	LASFDE163-EH_frame1
	.quad	LFB13118-.
	.set L$set$343,LFE13118-LFB13118
	.quad L$set$343
	.uleb128 0x8
	.quad	0
	.byte	0x4
	.set L$set$344,LCFI179-LFB13118
	.long L$set$344
	.byte	0xe
	.uleb128 0x20
	.byte	0x9d
	.uleb128 0x4
	.byte	0x9e
	.uleb128 0x3
	.byte	0x4
	.set L$set$345,LCFI180-LCFI179
	.long L$set$345
	.byte	0xde
	.byte	0xdd
	.byte	0xe
	.uleb128 0
	.align	3
LEFDE163:
LSFDE165:
	.set L$set$346,LEFDE165-LASFDE165
	.long L$set$346
LASFDE165:
	.long	LASFDE165-EH_frame1
	.quad	LFB13120-.
	.set L$set$347,LFE13120-LFB13120
	.quad L$set$347
	.uleb128 0x8
	.quad	0
	.byte	0x4
	.set L$set$348,LCFI181-LFB13120
	.long L$set$348
	.byte	0xe
	.uleb128 0x40
	.byte	0x9d
	.uleb128 0x8
	.byte	0x9e
	.uleb128 0x7
	.byte	0x4
	.set L$set$349,LCFI182-LCFI181
	.long L$set$349
	.byte	0xde
	.byte	0xdd
	.byte	0xe
	.uleb128 0
	.align	3
LEFDE165:
LSFDE167:
	.set L$set$350,LEFDE167-LASFDE167
	.long L$set$350
LASFDE167:
	.long	LASFDE167-EH_frame1
	.quad	LFB13132-.
	.set L$set$351,LFE13132-LFB13132
	.quad L$set$351
	.uleb128 0x8
	.quad	0
	.byte	0x4
	.set L$set$352,LCFI183-LFB13132
	.long L$set$352
	.byte	0xe
	.uleb128 0x30
	.byte	0x9d
	.uleb128 0x6
	.byte	0x9e
	.uleb128 0x5
	.byte	0x4
	.set L$set$353,LCFI184-LCFI183
	.long L$set$353
	.byte	0xde
	.byte	0xdd
	.byte	0xe
	.uleb128 0
	.align	3
LEFDE167:
LSFDE169:
	.set L$set$354,LEFDE169-LASFDE169
	.long L$set$354
LASFDE169:
	.long	LASFDE169-EH_frame1
	.quad	LFB13133-.
	.set L$set$355,LFE13133-LFB13133
	.quad L$set$355
	.uleb128 0x8
	.quad	0
	.byte	0x4
	.set L$set$356,LCFI185-LFB13133
	.long L$set$356
	.byte	0xe
	.uleb128 0x40
	.byte	0x9d
	.uleb128 0x8
	.byte	0x9e
	.uleb128 0x7
	.byte	0x4
	.set L$set$357,LCFI186-LCFI185
	.long L$set$357
	.byte	0xde
	.byte	0xdd
	.byte	0xe
	.uleb128 0
	.align	3
LEFDE169:
LSFDE171:
	.set L$set$358,LEFDE171-LASFDE171
	.long L$set$358
LASFDE171:
	.long	LASFDE171-EH_frame1
	.quad	LFB13140-.
	.set L$set$359,LFE13140-LFB13140
	.quad L$set$359
	.uleb128 0x8
	.quad	0
	.byte	0x4
	.set L$set$360,LCFI187-LFB13140
	.long L$set$360
	.byte	0xe
	.uleb128 0x20
	.byte	0x9d
	.uleb128 0x4
	.byte	0x9e
	.uleb128 0x3
	.byte	0x4
	.set L$set$361,LCFI188-LCFI187
	.long L$set$361
	.byte	0xde
	.byte	0xdd
	.byte	0xe
	.uleb128 0
	.align	3
LEFDE171:
LSFDE173:
	.set L$set$362,LEFDE173-LASFDE173
	.long L$set$362
LASFDE173:
	.long	LASFDE173-EH_frame1
	.quad	LFB13144-.
	.set L$set$363,LFE13144-LFB13144
	.quad L$set$363
	.uleb128 0x8
	.quad	0
	.byte	0x4
	.set L$set$364,LCFI189-LFB13144
	.long L$set$364
	.byte	0xe
	.uleb128 0x20
	.byte	0x9d
	.uleb128 0x4
	.byte	0x9e
	.uleb128 0x3
	.byte	0x4
	.set L$set$365,LCFI190-LCFI189
	.long L$set$365
	.byte	0xde
	.byte	0xdd
	.byte	0xe
	.uleb128 0
	.align	3
LEFDE173:
LSFDE175:
	.set L$set$366,LEFDE175-LASFDE175
	.long L$set$366
LASFDE175:
	.long	LASFDE175-EH_frame1
	.quad	LFB13145-.
	.set L$set$367,LFE13145-LFB13145
	.quad L$set$367
	.uleb128 0x8
	.quad	0
	.byte	0x4
	.set L$set$368,LCFI191-LFB13145
	.long L$set$368
	.byte	0xe
	.uleb128 0x20
	.byte	0x9d
	.uleb128 0x4
	.byte	0x9e
	.uleb128 0x3
	.byte	0x4
	.set L$set$369,LCFI192-LCFI191
	.long L$set$369
	.byte	0xde
	.byte	0xdd
	.byte	0xe
	.uleb128 0
	.align	3
LEFDE175:
LSFDE177:
	.set L$set$370,LEFDE177-LASFDE177
	.long L$set$370
LASFDE177:
	.long	LASFDE177-EH_frame1
	.quad	LFB13249-.
	.set L$set$371,LFE13249-LFB13249
	.quad L$set$371
	.uleb128 0x8
	.quad	0
	.byte	0x4
	.set L$set$372,LCFI193-LFB13249
	.long L$set$372
	.byte	0xe
	.uleb128 0x10
	.byte	0x4
	.set L$set$373,LCFI194-LCFI193
	.long L$set$373
	.byte	0xe
	.uleb128 0
	.align	3
LEFDE177:
LSFDE179:
	.set L$set$374,LEFDE179-LASFDE179
	.long L$set$374
LASFDE179:
	.long	LASFDE179-EH_frame1
	.quad	LFB13248-.
	.set L$set$375,LFE13248-LFB13248
	.quad L$set$375
	.uleb128 0x8
	.quad	0
	.byte	0x4
	.set L$set$376,LCFI195-LFB13248
	.long L$set$376
	.byte	0xe
	.uleb128 0x30
	.byte	0x9d
	.uleb128 0x6
	.byte	0x9e
	.uleb128 0x5
	.byte	0x4
	.set L$set$377,LCFI196-LCFI195
	.long L$set$377
	.byte	0xde
	.byte	0xdd
	.byte	0xe
	.uleb128 0
	.align	3
LEFDE179:
LSFDE181:
	.set L$set$378,LEFDE181-LASFDE181
	.long L$set$378
LASFDE181:
	.long	LASFDE181-EH_frame1
	.quad	LFB13284-.
	.set L$set$379,LFE13284-LFB13284
	.quad L$set$379
	.uleb128 0x8
	.quad	0
	.byte	0x4
	.set L$set$380,LCFI197-LFB13284
	.long L$set$380
	.byte	0xe
	.uleb128 0x10
	.byte	0x4
	.set L$set$381,LCFI198-LCFI197
	.long L$set$381
	.byte	0xe
	.uleb128 0
	.align	3
LEFDE181:
LSFDE183:
	.set L$set$382,LEFDE183-LASFDE183
	.long L$set$382
LASFDE183:
	.long	LASFDE183-EH_frame1
	.quad	LFB13286-.
	.set L$set$383,LFE13286-LFB13286
	.quad L$set$383
	.uleb128 0x8
	.quad	0
	.byte	0x4
	.set L$set$384,LCFI199-LFB13286
	.long L$set$384
	.byte	0xe
	.uleb128 0x20
	.byte	0x9d
	.uleb128 0x4
	.byte	0x9e
	.uleb128 0x3
	.byte	0x4
	.set L$set$385,LCFI200-LCFI199
	.long L$set$385
	.byte	0xde
	.byte	0xdd
	.byte	0xe
	.uleb128 0
	.align	3
LEFDE183:
LSFDE185:
	.set L$set$386,LEFDE185-LASFDE185
	.long L$set$386
LASFDE185:
	.long	LASFDE185-EH_frame1
	.quad	LFB13287-.
	.set L$set$387,LFE13287-LFB13287
	.quad L$set$387
	.uleb128 0x8
	.quad	0
	.byte	0x4
	.set L$set$388,LCFI201-LFB13287
	.long L$set$388
	.byte	0xe
	.uleb128 0x40
	.byte	0x9d
	.uleb128 0x8
	.byte	0x9e
	.uleb128 0x7
	.byte	0x4
	.set L$set$389,LCFI202-LCFI201
	.long L$set$389
	.byte	0xde
	.byte	0xdd
	.byte	0xe
	.uleb128 0
	.align	3
LEFDE185:
LSFDE187:
	.set L$set$390,LEFDE187-LASFDE187
	.long L$set$390
LASFDE187:
	.long	LASFDE187-EH_frame1
	.quad	LFB13288-.
	.set L$set$391,LFE13288-LFB13288
	.quad L$set$391
	.uleb128 0x8
	.quad	0
	.byte	0x4
	.set L$set$392,LCFI203-LFB13288
	.long L$set$392
	.byte	0xe
	.uleb128 0x20
	.byte	0x9d
	.uleb128 0x4
	.byte	0x9e
	.uleb128 0x3
	.byte	0x4
	.set L$set$393,LCFI204-LCFI203
	.long L$set$393
	.byte	0xde
	.byte	0xdd
	.byte	0xe
	.uleb128 0
	.align	3
LEFDE187:
LSFDE189:
	.set L$set$394,LEFDE189-LASFDE189
	.long L$set$394
LASFDE189:
	.long	LASFDE189-EH_frame1
	.quad	LFB13289-.
	.set L$set$395,LFE13289-LFB13289
	.quad L$set$395
	.uleb128 0x8
	.quad	0
	.byte	0x4
	.set L$set$396,LCFI205-LFB13289
	.long L$set$396
	.byte	0xe
	.uleb128 0x10
	.byte	0x4
	.set L$set$397,LCFI206-LCFI205
	.long L$set$397
	.byte	0xe
	.uleb128 0
	.align	3
LEFDE189:
LSFDE191:
	.set L$set$398,LEFDE191-LASFDE191
	.long L$set$398
LASFDE191:
	.long	LASFDE191-EH_frame1
	.quad	LFB13291-.
	.set L$set$399,LFE13291-LFB13291
	.quad L$set$399
	.uleb128 0x8
	.quad	0
	.byte	0x4
	.set L$set$400,LCFI207-LFB13291
	.long L$set$400
	.byte	0xe
	.uleb128 0x10
	.byte	0x4
	.set L$set$401,LCFI208-LCFI207
	.long L$set$401
	.byte	0xe
	.uleb128 0
	.align	3
LEFDE191:
LSFDE193:
	.set L$set$402,LEFDE193-LASFDE193
	.long L$set$402
LASFDE193:
	.long	LASFDE193-EH_frame1
	.quad	LFB13294-.
	.set L$set$403,LFE13294-LFB13294
	.quad L$set$403
	.uleb128 0x8
	.quad	0
	.byte	0x4
	.set L$set$404,LCFI209-LFB13294
	.long L$set$404
	.byte	0xe
	.uleb128 0x10
	.byte	0x4
	.set L$set$405,LCFI210-LCFI209
	.long L$set$405
	.byte	0xe
	.uleb128 0
	.align	3
LEFDE193:
LSFDE195:
	.set L$set$406,LEFDE195-LASFDE195
	.long L$set$406
LASFDE195:
	.long	LASFDE195-EH_frame1
	.quad	LFB13296-.
	.set L$set$407,LFE13296-LFB13296
	.quad L$set$407
	.uleb128 0x8
	.quad	0
	.byte	0x4
	.set L$set$408,LCFI211-LFB13296
	.long L$set$408
	.byte	0xe
	.uleb128 0x20
	.byte	0x9d
	.uleb128 0x4
	.byte	0x9e
	.uleb128 0x3
	.byte	0x4
	.set L$set$409,LCFI212-LCFI211
	.long L$set$409
	.byte	0xde
	.byte	0xdd
	.byte	0xe
	.uleb128 0
	.align	3
LEFDE195:
LSFDE197:
	.set L$set$410,LEFDE197-LASFDE197
	.long L$set$410
LASFDE197:
	.long	LASFDE197-EH_frame1
	.quad	LFB13297-.
	.set L$set$411,LFE13297-LFB13297
	.quad L$set$411
	.uleb128 0x8
	.quad	0
	.byte	0x4
	.set L$set$412,LCFI213-LFB13297
	.long L$set$412
	.byte	0xe
	.uleb128 0x50
	.byte	0x9d
	.uleb128 0xa
	.byte	0x9e
	.uleb128 0x9
	.byte	0x4
	.set L$set$413,LCFI214-LCFI213
	.long L$set$413
	.byte	0xde
	.byte	0xdd
	.byte	0xe
	.uleb128 0
	.align	3
LEFDE197:
LSFDE199:
	.set L$set$414,LEFDE199-LASFDE199
	.long L$set$414
LASFDE199:
	.long	LASFDE199-EH_frame1
	.quad	LFB13298-.
	.set L$set$415,LFE13298-LFB13298
	.quad L$set$415
	.uleb128 0x8
	.quad	0
	.byte	0x4
	.set L$set$416,LCFI215-LFB13298
	.long L$set$416
	.byte	0xe
	.uleb128 0x40
	.byte	0x9d
	.uleb128 0x8
	.byte	0x9e
	.uleb128 0x7
	.byte	0x4
	.set L$set$417,LCFI216-LCFI215
	.long L$set$417
	.byte	0xde
	.byte	0xdd
	.byte	0xe
	.uleb128 0
	.align	3
LEFDE199:
LSFDE201:
	.set L$set$418,LEFDE201-LASFDE201
	.long L$set$418
LASFDE201:
	.long	LASFDE201-EH_frame1
	.quad	LFB13299-.
	.set L$set$419,LFE13299-LFB13299
	.quad L$set$419
	.uleb128 0x8
	.quad	0
	.byte	0x4
	.set L$set$420,LCFI217-LFB13299
	.long L$set$420
	.byte	0xe
	.uleb128 0x20
	.byte	0x9d
	.uleb128 0x4
	.byte	0x9e
	.uleb128 0x3
	.byte	0x4
	.set L$set$421,LCFI218-LCFI217
	.long L$set$421
	.byte	0xde
	.byte	0xdd
	.byte	0xe
	.uleb128 0
	.align	3
LEFDE201:
LSFDE203:
	.set L$set$422,LEFDE203-LASFDE203
	.long L$set$422
LASFDE203:
	.long	LASFDE203-EH_frame1
	.quad	LFB13301-.
	.set L$set$423,LFE13301-LFB13301
	.quad L$set$423
	.uleb128 0x8
	.quad	0
	.byte	0x4
	.set L$set$424,LCFI219-LFB13301
	.long L$set$424
	.byte	0xe
	.uleb128 0x10
	.byte	0x4
	.set L$set$425,LCFI220-LCFI219
	.long L$set$425
	.byte	0xe
	.uleb128 0
	.align	3
LEFDE203:
LSFDE205:
	.set L$set$426,LEFDE205-LASFDE205
	.long L$set$426
LASFDE205:
	.long	LASFDE205-EH_frame1
	.quad	LFB13302-.
	.set L$set$427,LFE13302-LFB13302
	.quad L$set$427
	.uleb128 0x8
	.quad	0
	.byte	0x4
	.set L$set$428,LCFI221-LFB13302
	.long L$set$428
	.byte	0xe
	.uleb128 0x30
	.byte	0x9d
	.uleb128 0x6
	.byte	0x9e
	.uleb128 0x5
	.byte	0x4
	.set L$set$429,LCFI222-LCFI221
	.long L$set$429
	.byte	0x93
	.uleb128 0x4
	.byte	0x4
	.set L$set$430,LCFI223-LCFI222
	.long L$set$430
	.byte	0xde
	.byte	0xdd
	.byte	0xd3
	.byte	0xe
	.uleb128 0
	.align	3
LEFDE205:
LSFDE207:
	.set L$set$431,LEFDE207-LASFDE207
	.long L$set$431
LASFDE207:
	.long	LASFDE207-EH_frame1
	.quad	LFB13300-.
	.set L$set$432,LFE13300-LFB13300
	.quad L$set$432
	.uleb128 0x8
	.quad	0
	.byte	0x4
	.set L$set$433,LCFI224-LFB13300
	.long L$set$433
	.byte	0xe
	.uleb128 0x40
	.byte	0x9d
	.uleb128 0x8
	.byte	0x9e
	.uleb128 0x7
	.byte	0x4
	.set L$set$434,LCFI225-LCFI224
	.long L$set$434
	.byte	0xde
	.byte	0xdd
	.byte	0xe
	.uleb128 0
	.align	3
LEFDE207:
LSFDE209:
	.set L$set$435,LEFDE209-LASFDE209
	.long L$set$435
LASFDE209:
	.long	LASFDE209-EH_frame1
	.quad	LFB13303-.
	.set L$set$436,LFE13303-LFB13303
	.quad L$set$436
	.uleb128 0x8
	.quad	0
	.byte	0x4
	.set L$set$437,LCFI226-LFB13303
	.long L$set$437
	.byte	0xe
	.uleb128 0x30
	.byte	0x4
	.set L$set$438,LCFI227-LCFI226
	.long L$set$438
	.byte	0xe
	.uleb128 0
	.align	3
LEFDE209:
LSFDE211:
	.set L$set$439,LEFDE211-LASFDE211
	.long L$set$439
LASFDE211:
	.long	LASFDE211-EH_frame1
	.quad	LFB13304-.
	.set L$set$440,LFE13304-LFB13304
	.quad L$set$440
	.uleb128 0x8
	.quad	0
	.byte	0x4
	.set L$set$441,LCFI228-LFB13304
	.long L$set$441
	.byte	0xe
	.uleb128 0x40
	.byte	0x9d
	.uleb128 0x8
	.byte	0x9e
	.uleb128 0x7
	.byte	0x4
	.set L$set$442,LCFI229-LCFI228
	.long L$set$442
	.byte	0xde
	.byte	0xdd
	.byte	0xe
	.uleb128 0
	.align	3
LEFDE211:
LSFDE213:
	.set L$set$443,LEFDE213-LASFDE213
	.long L$set$443
LASFDE213:
	.long	LASFDE213-EH_frame1
	.quad	LFB13313-.
	.set L$set$444,LFE13313-LFB13313
	.quad L$set$444
	.uleb128 0x8
	.quad	0
	.byte	0x4
	.set L$set$445,LCFI230-LFB13313
	.long L$set$445
	.byte	0xe
	.uleb128 0x10
	.byte	0x4
	.set L$set$446,LCFI231-LCFI230
	.long L$set$446
	.byte	0xe
	.uleb128 0
	.align	3
LEFDE213:
LSFDE215:
	.set L$set$447,LEFDE215-LASFDE215
	.long L$set$447
LASFDE215:
	.long	LASFDE215-EH_frame1
	.quad	LFB13314-.
	.set L$set$448,LFE13314-LFB13314
	.quad L$set$448
	.uleb128 0x8
	.quad	0
	.byte	0x4
	.set L$set$449,LCFI232-LFB13314
	.long L$set$449
	.byte	0xe
	.uleb128 0x20
	.byte	0x9d
	.uleb128 0x4
	.byte	0x9e
	.uleb128 0x3
	.byte	0x4
	.set L$set$450,LCFI233-LCFI232
	.long L$set$450
	.byte	0xde
	.byte	0xdd
	.byte	0xe
	.uleb128 0
	.align	3
LEFDE215:
LSFDE217:
	.set L$set$451,LEFDE217-LASFDE217
	.long L$set$451
LASFDE217:
	.long	LASFDE217-EH_frame1
	.quad	LFB13411-.
	.set L$set$452,LFE13411-LFB13411
	.quad L$set$452
	.uleb128 0x8
	.quad	0
	.byte	0x4
	.set L$set$453,LCFI234-LFB13411
	.long L$set$453
	.byte	0xe
	.uleb128 0x30
	.byte	0x9d
	.uleb128 0x6
	.byte	0x9e
	.uleb128 0x5
	.byte	0x4
	.set L$set$454,LCFI235-LCFI234
	.long L$set$454
	.byte	0xde
	.byte	0xdd
	.byte	0xe
	.uleb128 0
	.align	3
LEFDE217:
LSFDE219:
	.set L$set$455,LEFDE219-LASFDE219
	.long L$set$455
LASFDE219:
	.long	LASFDE219-EH_frame1
	.quad	LFB13423-.
	.set L$set$456,LFE13423-LFB13423
	.quad L$set$456
	.uleb128 0x8
	.quad	0
	.byte	0x4
	.set L$set$457,LCFI236-LFB13423
	.long L$set$457
	.byte	0xe
	.uleb128 0x30
	.byte	0x9d
	.uleb128 0x6
	.byte	0x9e
	.uleb128 0x5
	.byte	0x4
	.set L$set$458,LCFI237-LCFI236
	.long L$set$458
	.byte	0xde
	.byte	0xdd
	.byte	0xe
	.uleb128 0
	.align	3
LEFDE219:
LSFDE221:
	.set L$set$459,LEFDE221-LASFDE221
	.long L$set$459
LASFDE221:
	.long	LASFDE221-EH_frame1
	.quad	LFB13424-.
	.set L$set$460,LFE13424-LFB13424
	.quad L$set$460
	.uleb128 0x8
	.quad	0
	.byte	0x4
	.set L$set$461,LCFI238-LFB13424
	.long L$set$461
	.byte	0xe
	.uleb128 0x20
	.byte	0x9d
	.uleb128 0x4
	.byte	0x9e
	.uleb128 0x3
	.byte	0x4
	.set L$set$462,LCFI239-LCFI238
	.long L$set$462
	.byte	0xde
	.byte	0xdd
	.byte	0xe
	.uleb128 0
	.align	3
LEFDE221:
LSFDE223:
	.set L$set$463,LEFDE223-LASFDE223
	.long L$set$463
LASFDE223:
	.long	LASFDE223-EH_frame1
	.quad	LFB13425-.
	.set L$set$464,LFE13425-LFB13425
	.quad L$set$464
	.uleb128 0x8
	.quad	0
	.byte	0x4
	.set L$set$465,LCFI240-LFB13425
	.long L$set$465
	.byte	0xe
	.uleb128 0x30
	.byte	0x9d
	.uleb128 0x6
	.byte	0x9e
	.uleb128 0x5
	.byte	0x4
	.set L$set$466,LCFI241-LCFI240
	.long L$set$466
	.byte	0xde
	.byte	0xdd
	.byte	0xe
	.uleb128 0
	.align	3
LEFDE223:
LSFDE225:
	.set L$set$467,LEFDE225-LASFDE225
	.long L$set$467
LASFDE225:
	.long	LASFDE225-EH_frame1
	.quad	LFB13427-.
	.set L$set$468,LFE13427-LFB13427
	.quad L$set$468
	.uleb128 0x8
	.quad	LLSDA13427-.
	.byte	0x4
	.set L$set$469,LCFI242-LFB13427
	.long L$set$469
	.byte	0xe
	.uleb128 0x50
	.byte	0x9d
	.uleb128 0xa
	.byte	0x9e
	.uleb128 0x9
	.byte	0x4
	.set L$set$470,LCFI243-LCFI242
	.long L$set$470
	.byte	0x93
	.uleb128 0x8
	.byte	0x4
	.set L$set$471,LCFI244-LCFI243
	.long L$set$471
	.byte	0xde
	.byte	0xdd
	.byte	0xd3
	.byte	0xe
	.uleb128 0
	.align	3
LEFDE225:
LSFDE227:
	.set L$set$472,LEFDE227-LASFDE227
	.long L$set$472
LASFDE227:
	.long	LASFDE227-EH_frame1
	.quad	LFB13428-.
	.set L$set$473,LFE13428-LFB13428
	.quad L$set$473
	.uleb128 0x8
	.quad	0
	.byte	0x4
	.set L$set$474,LCFI245-LFB13428
	.long L$set$474
	.byte	0xe
	.uleb128 0x10
	.byte	0x4
	.set L$set$475,LCFI246-LCFI245
	.long L$set$475
	.byte	0xe
	.uleb128 0
	.align	3
LEFDE227:
LSFDE229:
	.set L$set$476,LEFDE229-LASFDE229
	.long L$set$476
LASFDE229:
	.long	LASFDE229-EH_frame1
	.quad	LFB13429-.
	.set L$set$477,LFE13429-LFB13429
	.quad L$set$477
	.uleb128 0x8
	.quad	0
	.byte	0x4
	.set L$set$478,LCFI247-LFB13429
	.long L$set$478
	.byte	0xe
	.uleb128 0x20
	.byte	0x9d
	.uleb128 0x4
	.byte	0x9e
	.uleb128 0x3
	.byte	0x4
	.set L$set$479,LCFI248-LCFI247
	.long L$set$479
	.byte	0xde
	.byte	0xdd
	.byte	0xe
	.uleb128 0
	.align	3
LEFDE229:
LSFDE231:
	.set L$set$480,LEFDE231-LASFDE231
	.long L$set$480
LASFDE231:
	.long	LASFDE231-EH_frame1
	.quad	LFB13430-.
	.set L$set$481,LFE13430-LFB13430
	.quad L$set$481
	.uleb128 0x8
	.quad	0
	.byte	0x4
	.set L$set$482,LCFI249-LFB13430
	.long L$set$482
	.byte	0xe
	.uleb128 0x10
	.byte	0x4
	.set L$set$483,LCFI250-LCFI249
	.long L$set$483
	.byte	0xe
	.uleb128 0
	.align	3
LEFDE231:
LSFDE233:
	.set L$set$484,LEFDE233-LASFDE233
	.long L$set$484
LASFDE233:
	.long	LASFDE233-EH_frame1
	.quad	LFB13431-.
	.set L$set$485,LFE13431-LFB13431
	.quad L$set$485
	.uleb128 0x8
	.quad	0
	.byte	0x4
	.set L$set$486,LCFI251-LFB13431
	.long L$set$486
	.byte	0xe
	.uleb128 0x30
	.byte	0x9d
	.uleb128 0x6
	.byte	0x9e
	.uleb128 0x5
	.byte	0x4
	.set L$set$487,LCFI252-LCFI251
	.long L$set$487
	.byte	0x93
	.uleb128 0x4
	.byte	0x4
	.set L$set$488,LCFI253-LCFI252
	.long L$set$488
	.byte	0xde
	.byte	0xdd
	.byte	0xd3
	.byte	0xe
	.uleb128 0
	.align	3
LEFDE233:
LSFDE235:
	.set L$set$489,LEFDE235-LASFDE235
	.long L$set$489
LASFDE235:
	.long	LASFDE235-EH_frame1
	.quad	LFB13432-.
	.set L$set$490,LFE13432-LFB13432
	.quad L$set$490
	.uleb128 0x8
	.quad	0
	.byte	0x4
	.set L$set$491,LCFI254-LFB13432
	.long L$set$491
	.byte	0xe
	.uleb128 0x10
	.byte	0x4
	.set L$set$492,LCFI255-LCFI254
	.long L$set$492
	.byte	0xe
	.uleb128 0
	.align	3
LEFDE235:
LSFDE237:
	.set L$set$493,LEFDE237-LASFDE237
	.long L$set$493
LASFDE237:
	.long	LASFDE237-EH_frame1
	.quad	LFB13433-.
	.set L$set$494,LFE13433-LFB13433
	.quad L$set$494
	.uleb128 0x8
	.quad	0
	.byte	0x4
	.set L$set$495,LCFI256-LFB13433
	.long L$set$495
	.byte	0xe
	.uleb128 0x30
	.byte	0x9d
	.uleb128 0x6
	.byte	0x9e
	.uleb128 0x5
	.byte	0x4
	.set L$set$496,LCFI257-LCFI256
	.long L$set$496
	.byte	0xde
	.byte	0xdd
	.byte	0xe
	.uleb128 0
	.align	3
LEFDE237:
LSFDE239:
	.set L$set$497,LEFDE239-LASFDE239
	.long L$set$497
LASFDE239:
	.long	LASFDE239-EH_frame1
	.quad	LFB13435-.
	.set L$set$498,LFE13435-LFB13435
	.quad L$set$498
	.uleb128 0x8
	.quad	0
	.byte	0x4
	.set L$set$499,LCFI258-LFB13435
	.long L$set$499
	.byte	0xe
	.uleb128 0x10
	.byte	0x4
	.set L$set$500,LCFI259-LCFI258
	.long L$set$500
	.byte	0xe
	.uleb128 0
	.align	3
LEFDE239:
LSFDE241:
	.set L$set$501,LEFDE241-LASFDE241
	.long L$set$501
LASFDE241:
	.long	LASFDE241-EH_frame1
	.quad	LFB13434-.
	.set L$set$502,LFE13434-LFB13434
	.quad L$set$502
	.uleb128 0x8
	.quad	0
	.byte	0x4
	.set L$set$503,LCFI260-LFB13434
	.long L$set$503
	.byte	0xe
	.uleb128 0x30
	.byte	0x9d
	.uleb128 0x6
	.byte	0x9e
	.uleb128 0x5
	.byte	0x4
	.set L$set$504,LCFI261-LCFI260
	.long L$set$504
	.byte	0xde
	.byte	0xdd
	.byte	0xe
	.uleb128 0
	.align	3
LEFDE241:
LSFDE243:
	.set L$set$505,LEFDE243-LASFDE243
	.long L$set$505
LASFDE243:
	.long	LASFDE243-EH_frame1
	.quad	LFB13436-.
	.set L$set$506,LFE13436-LFB13436
	.quad L$set$506
	.uleb128 0x8
	.quad	0
	.byte	0x4
	.set L$set$507,LCFI262-LFB13436
	.long L$set$507
	.byte	0xe
	.uleb128 0x10
	.byte	0x4
	.set L$set$508,LCFI263-LCFI262
	.long L$set$508
	.byte	0xe
	.uleb128 0
	.align	3
LEFDE243:
LSFDE245:
	.set L$set$509,LEFDE245-LASFDE245
	.long L$set$509
LASFDE245:
	.long	LASFDE245-EH_frame1
	.quad	LFB13552-.
	.set L$set$510,LFE13552-LFB13552
	.quad L$set$510
	.uleb128 0x8
	.quad	0
	.byte	0x4
	.set L$set$511,LCFI264-LFB13552
	.long L$set$511
	.byte	0xe
	.uleb128 0x10
	.byte	0x4
	.set L$set$512,LCFI265-LCFI264
	.long L$set$512
	.byte	0xe
	.uleb128 0
	.align	3
LEFDE245:
LSFDE247:
	.set L$set$513,LEFDE247-LASFDE247
	.long L$set$513
LASFDE247:
	.long	LASFDE247-EH_frame1
	.quad	LFB13554-.
	.set L$set$514,LFE13554-LFB13554
	.quad L$set$514
	.uleb128 0x8
	.quad	0
	.byte	0x4
	.set L$set$515,LCFI266-LFB13554
	.long L$set$515
	.byte	0xe
	.uleb128 0x30
	.byte	0x9d
	.uleb128 0x6
	.byte	0x9e
	.uleb128 0x5
	.byte	0x4
	.set L$set$516,LCFI267-LCFI266
	.long L$set$516
	.byte	0xde
	.byte	0xdd
	.byte	0xe
	.uleb128 0
	.align	3
LEFDE247:
LSFDE249:
	.set L$set$517,LEFDE249-LASFDE249
	.long L$set$517
LASFDE249:
	.long	LASFDE249-EH_frame1
	.quad	LFB13555-.
	.set L$set$518,LFE13555-LFB13555
	.quad L$set$518
	.uleb128 0x8
	.quad	LLSDA13555-.
	.byte	0x4
	.set L$set$519,LCFI268-LFB13555
	.long L$set$519
	.byte	0xe
	.uleb128 0x40
	.byte	0x9d
	.uleb128 0x8
	.byte	0x9e
	.uleb128 0x7
	.byte	0x4
	.set L$set$520,LCFI269-LCFI268
	.long L$set$520
	.byte	0x93
	.uleb128 0x6
	.byte	0x94
	.uleb128 0x5
	.byte	0x95
	.uleb128 0x4
	.byte	0x4
	.set L$set$521,LCFI270-LCFI269
	.long L$set$521
	.byte	0xde
	.byte	0xdd
	.byte	0xd5
	.byte	0xd3
	.byte	0xd4
	.byte	0xe
	.uleb128 0
	.align	3
LEFDE249:
LSFDE251:
	.set L$set$522,LEFDE251-LASFDE251
	.long L$set$522
LASFDE251:
	.long	LASFDE251-EH_frame1
	.quad	LFB13557-.
	.set L$set$523,LFE13557-LFB13557
	.quad L$set$523
	.uleb128 0x8
	.quad	0
	.byte	0x4
	.set L$set$524,LCFI271-LFB13557
	.long L$set$524
	.byte	0xe
	.uleb128 0x20
	.byte	0x9d
	.uleb128 0x4
	.byte	0x9e
	.uleb128 0x3
	.byte	0x4
	.set L$set$525,LCFI272-LCFI271
	.long L$set$525
	.byte	0xde
	.byte	0xdd
	.byte	0xe
	.uleb128 0
	.align	3
LEFDE251:
LSFDE253:
	.set L$set$526,LEFDE253-LASFDE253
	.long L$set$526
LASFDE253:
	.long	LASFDE253-EH_frame1
	.quad	LFB13558-.
	.set L$set$527,LFE13558-LFB13558
	.quad L$set$527
	.uleb128 0x8
	.quad	0
	.byte	0x4
	.set L$set$528,LCFI273-LFB13558
	.long L$set$528
	.byte	0xe
	.uleb128 0x30
	.byte	0x9d
	.uleb128 0x6
	.byte	0x9e
	.uleb128 0x5
	.byte	0x4
	.set L$set$529,LCFI274-LCFI273
	.long L$set$529
	.byte	0x93
	.uleb128 0x4
	.byte	0x4
	.set L$set$530,LCFI275-LCFI274
	.long L$set$530
	.byte	0xde
	.byte	0xdd
	.byte	0xd3
	.byte	0xe
	.uleb128 0
	.align	3
LEFDE253:
LSFDE255:
	.set L$set$531,LEFDE255-LASFDE255
	.long L$set$531
LASFDE255:
	.long	LASFDE255-EH_frame1
	.quad	LFB13559-.
	.set L$set$532,LFE13559-LFB13559
	.quad L$set$532
	.uleb128 0x8
	.quad	0
	.byte	0x4
	.set L$set$533,LCFI276-LFB13559
	.long L$set$533
	.byte	0xe
	.uleb128 0x10
	.byte	0x4
	.set L$set$534,LCFI277-LCFI276
	.long L$set$534
	.byte	0xe
	.uleb128 0
	.align	3
LEFDE255:
LSFDE257:
	.set L$set$535,LEFDE257-LASFDE257
	.long L$set$535
LASFDE257:
	.long	LASFDE257-EH_frame1
	.quad	LFB13625-.
	.set L$set$536,LFE13625-LFB13625
	.quad L$set$536
	.uleb128 0x8
	.quad	0
	.byte	0x4
	.set L$set$537,LCFI278-LFB13625
	.long L$set$537
	.byte	0xe
	.uleb128 0x10
	.byte	0x4
	.set L$set$538,LCFI279-LCFI278
	.long L$set$538
	.byte	0xe
	.uleb128 0
	.align	3
LEFDE257:
LSFDE259:
	.set L$set$539,LEFDE259-LASFDE259
	.long L$set$539
LASFDE259:
	.long	LASFDE259-EH_frame1
	.quad	LFB13624-.
	.set L$set$540,LFE13624-LFB13624
	.quad L$set$540
	.uleb128 0x8
	.quad	0
	.byte	0x4
	.set L$set$541,LCFI280-LFB13624
	.long L$set$541
	.byte	0xe
	.uleb128 0x30
	.byte	0x9d
	.uleb128 0x6
	.byte	0x9e
	.uleb128 0x5
	.byte	0x4
	.set L$set$542,LCFI281-LCFI280
	.long L$set$542
	.byte	0xde
	.byte	0xdd
	.byte	0xe
	.uleb128 0
	.align	3
LEFDE259:
LSFDE261:
	.set L$set$543,LEFDE261-LASFDE261
	.long L$set$543
LASFDE261:
	.long	LASFDE261-EH_frame1
	.quad	LFB13626-.
	.set L$set$544,LFE13626-LFB13626
	.quad L$set$544
	.uleb128 0x8
	.quad	0
	.byte	0x4
	.set L$set$545,LCFI282-LFB13626
	.long L$set$545
	.byte	0xe
	.uleb128 0x10
	.byte	0x4
	.set L$set$546,LCFI283-LCFI282
	.long L$set$546
	.byte	0xe
	.uleb128 0
	.align	3
LEFDE261:
LSFDE263:
	.set L$set$547,LEFDE263-LASFDE263
	.long L$set$547
LASFDE263:
	.long	LASFDE263-EH_frame1
	.quad	LFB13629-.
	.set L$set$548,LFE13629-LFB13629
	.quad L$set$548
	.uleb128 0x8
	.quad	LLSDA13629-.
	.byte	0x4
	.set L$set$549,LCFI284-LFB13629
	.long L$set$549
	.byte	0xe
	.uleb128 0x50
	.byte	0x9d
	.uleb128 0xa
	.byte	0x9e
	.uleb128 0x9
	.byte	0x4
	.set L$set$550,LCFI285-LCFI284
	.long L$set$550
	.byte	0x93
	.uleb128 0x8
	.byte	0x94
	.uleb128 0x7
	.byte	0x95
	.uleb128 0x6
	.byte	0x4
	.set L$set$551,LCFI286-LCFI285
	.long L$set$551
	.byte	0xde
	.byte	0xdd
	.byte	0xd5
	.byte	0xd3
	.byte	0xd4
	.byte	0xe
	.uleb128 0
	.align	3
LEFDE263:
LSFDE265:
	.set L$set$552,LEFDE265-LASFDE265
	.long L$set$552
LASFDE265:
	.long	LASFDE265-EH_frame1
	.quad	LFB13656-.
	.set L$set$553,LFE13656-LFB13656
	.quad L$set$553
	.uleb128 0x8
	.quad	0
	.byte	0x4
	.set L$set$554,LCFI287-LFB13656
	.long L$set$554
	.byte	0xe
	.uleb128 0x10
	.byte	0x4
	.set L$set$555,LCFI288-LCFI287
	.long L$set$555
	.byte	0xe
	.uleb128 0
	.align	3
LEFDE265:
LSFDE267:
	.set L$set$556,LEFDE267-LASFDE267
	.long L$set$556
LASFDE267:
	.long	LASFDE267-EH_frame1
	.quad	LFB13657-.
	.set L$set$557,LFE13657-LFB13657
	.quad L$set$557
	.uleb128 0x8
	.quad	0
	.byte	0x4
	.set L$set$558,LCFI289-LFB13657
	.long L$set$558
	.byte	0xe
	.uleb128 0x10
	.byte	0x4
	.set L$set$559,LCFI290-LCFI289
	.long L$set$559
	.byte	0xe
	.uleb128 0
	.align	3
LEFDE267:
LSFDE269:
	.set L$set$560,LEFDE269-LASFDE269
	.long L$set$560
LASFDE269:
	.long	LASFDE269-EH_frame1
	.quad	LFB13658-.
	.set L$set$561,LFE13658-LFB13658
	.quad L$set$561
	.uleb128 0x8
	.quad	0
	.byte	0x4
	.set L$set$562,LCFI291-LFB13658
	.long L$set$562
	.byte	0xe
	.uleb128 0x30
	.byte	0x9d
	.uleb128 0x6
	.byte	0x9e
	.uleb128 0x5
	.byte	0x4
	.set L$set$563,LCFI292-LCFI291
	.long L$set$563
	.byte	0xde
	.byte	0xdd
	.byte	0xe
	.uleb128 0
	.align	3
LEFDE269:
LSFDE271:
	.set L$set$564,LEFDE271-LASFDE271
	.long L$set$564
LASFDE271:
	.long	LASFDE271-EH_frame1
	.quad	LFB13659-.
	.set L$set$565,LFE13659-LFB13659
	.quad L$set$565
	.uleb128 0x8
	.quad	0
	.byte	0x4
	.set L$set$566,LCFI293-LFB13659
	.long L$set$566
	.byte	0xe
	.uleb128 0x30
	.byte	0x9d
	.uleb128 0x6
	.byte	0x9e
	.uleb128 0x5
	.byte	0x4
	.set L$set$567,LCFI294-LCFI293
	.long L$set$567
	.byte	0xde
	.byte	0xdd
	.byte	0xe
	.uleb128 0
	.align	3
LEFDE271:
LSFDE273:
	.set L$set$568,LEFDE273-LASFDE273
	.long L$set$568
LASFDE273:
	.long	LASFDE273-EH_frame1
	.quad	LFB13660-.
	.set L$set$569,LFE13660-LFB13660
	.quad L$set$569
	.uleb128 0x8
	.quad	0
	.byte	0x4
	.set L$set$570,LCFI295-LFB13660
	.long L$set$570
	.byte	0xe
	.uleb128 0x30
	.byte	0x9d
	.uleb128 0x6
	.byte	0x9e
	.uleb128 0x5
	.byte	0x4
	.set L$set$571,LCFI296-LCFI295
	.long L$set$571
	.byte	0xde
	.byte	0xdd
	.byte	0xe
	.uleb128 0
	.align	3
LEFDE273:
LSFDE275:
	.set L$set$572,LEFDE275-LASFDE275
	.long L$set$572
LASFDE275:
	.long	LASFDE275-EH_frame1
	.quad	LFB13673-.
	.set L$set$573,LFE13673-LFB13673
	.quad L$set$573
	.uleb128 0x8
	.quad	0
	.byte	0x4
	.set L$set$574,LCFI297-LFB13673
	.long L$set$574
	.byte	0xe
	.uleb128 0x10
	.byte	0x4
	.set L$set$575,LCFI298-LCFI297
	.long L$set$575
	.byte	0xe
	.uleb128 0
	.align	3
LEFDE275:
LSFDE277:
	.set L$set$576,LEFDE277-LASFDE277
	.long L$set$576
LASFDE277:
	.long	LASFDE277-EH_frame1
	.quad	LFB13674-.
	.set L$set$577,LFE13674-LFB13674
	.quad L$set$577
	.uleb128 0x8
	.quad	0
	.byte	0x4
	.set L$set$578,LCFI299-LFB13674
	.long L$set$578
	.byte	0xe
	.uleb128 0x40
	.byte	0x9d
	.uleb128 0x8
	.byte	0x9e
	.uleb128 0x7
	.byte	0x4
	.set L$set$579,LCFI300-LCFI299
	.long L$set$579
	.byte	0xde
	.byte	0xdd
	.byte	0xe
	.uleb128 0
	.align	3
LEFDE277:
LSFDE279:
	.set L$set$580,LEFDE279-LASFDE279
	.long L$set$580
LASFDE279:
	.long	LASFDE279-EH_frame1
	.quad	LFB13692-.
	.set L$set$581,LFE13692-LFB13692
	.quad L$set$581
	.uleb128 0x8
	.quad	0
	.byte	0x4
	.set L$set$582,LCFI301-LFB13692
	.long L$set$582
	.byte	0xe
	.uleb128 0x30
	.byte	0x9d
	.uleb128 0x6
	.byte	0x9e
	.uleb128 0x5
	.byte	0x4
	.set L$set$583,LCFI302-LCFI301
	.long L$set$583
	.byte	0xde
	.byte	0xdd
	.byte	0xe
	.uleb128 0
	.align	3
LEFDE279:
LSFDE281:
	.set L$set$584,LEFDE281-LASFDE281
	.long L$set$584
LASFDE281:
	.long	LASFDE281-EH_frame1
	.quad	LFB13694-.
	.set L$set$585,LFE13694-LFB13694
	.quad L$set$585
	.uleb128 0x8
	.quad	0
	.byte	0x4
	.set L$set$586,LCFI303-LFB13694
	.long L$set$586
	.byte	0xe
	.uleb128 0x40
	.byte	0x9d
	.uleb128 0x8
	.byte	0x9e
	.uleb128 0x7
	.byte	0x4
	.set L$set$587,LCFI304-LCFI303
	.long L$set$587
	.byte	0x93
	.uleb128 0x6
	.byte	0x4
	.set L$set$588,LCFI305-LCFI304
	.long L$set$588
	.byte	0xde
	.byte	0xdd
	.byte	0xd3
	.byte	0xe
	.uleb128 0
	.align	3
LEFDE281:
LSFDE283:
	.set L$set$589,LEFDE283-LASFDE283
	.long L$set$589
LASFDE283:
	.long	LASFDE283-EH_frame1
	.quad	LFB13696-.
	.set L$set$590,LFE13696-LFB13696
	.quad L$set$590
	.uleb128 0x8
	.quad	0
	.byte	0x4
	.set L$set$591,LCFI306-LFB13696
	.long L$set$591
	.byte	0xe
	.uleb128 0x10
	.byte	0x4
	.set L$set$592,LCFI307-LCFI306
	.long L$set$592
	.byte	0xe
	.uleb128 0
	.align	3
LEFDE283:
LSFDE285:
	.set L$set$593,LEFDE285-LASFDE285
	.long L$set$593
LASFDE285:
	.long	LASFDE285-EH_frame1
	.quad	LFB13697-.
	.set L$set$594,LFE13697-LFB13697
	.quad L$set$594
	.uleb128 0x8
	.quad	0
	.byte	0x4
	.set L$set$595,LCFI308-LFB13697
	.long L$set$595
	.byte	0xe
	.uleb128 0x40
	.byte	0x9d
	.uleb128 0x8
	.byte	0x9e
	.uleb128 0x7
	.byte	0x4
	.set L$set$596,LCFI309-LCFI308
	.long L$set$596
	.byte	0x93
	.uleb128 0x6
	.byte	0x94
	.uleb128 0x5
	.byte	0x4
	.set L$set$597,LCFI310-LCFI309
	.long L$set$597
	.byte	0xde
	.byte	0xdd
	.byte	0xd3
	.byte	0xd4
	.byte	0xe
	.uleb128 0
	.align	3
LEFDE285:
LSFDE287:
	.set L$set$598,LEFDE287-LASFDE287
	.long L$set$598
LASFDE287:
	.long	LASFDE287-EH_frame1
	.quad	LFB13698-.
	.set L$set$599,LFE13698-LFB13698
	.quad L$set$599
	.uleb128 0x8
	.quad	0
	.byte	0x4
	.set L$set$600,LCFI311-LFB13698
	.long L$set$600
	.byte	0xe
	.uleb128 0x20
	.byte	0x9d
	.uleb128 0x4
	.byte	0x9e
	.uleb128 0x3
	.byte	0x4
	.set L$set$601,LCFI312-LCFI311
	.long L$set$601
	.byte	0xde
	.byte	0xdd
	.byte	0xe
	.uleb128 0
	.align	3
LEFDE287:
LSFDE289:
	.set L$set$602,LEFDE289-LASFDE289
	.long L$set$602
LASFDE289:
	.long	LASFDE289-EH_frame1
	.quad	LFB13699-.
	.set L$set$603,LFE13699-LFB13699
	.quad L$set$603
	.uleb128 0x8
	.quad	0
	.byte	0x4
	.set L$set$604,LCFI313-LFB13699
	.long L$set$604
	.byte	0xe
	.uleb128 0x10
	.byte	0x4
	.set L$set$605,LCFI314-LCFI313
	.long L$set$605
	.byte	0xe
	.uleb128 0
	.align	3
LEFDE289:
LSFDE291:
	.set L$set$606,LEFDE291-LASFDE291
	.long L$set$606
LASFDE291:
	.long	LASFDE291-EH_frame1
	.quad	LFB13736-.
	.set L$set$607,LFE13736-LFB13736
	.quad L$set$607
	.uleb128 0x8
	.quad	0
	.byte	0x4
	.set L$set$608,LCFI315-LFB13736
	.long L$set$608
	.byte	0xe
	.uleb128 0x20
	.byte	0x9d
	.uleb128 0x4
	.byte	0x9e
	.uleb128 0x3
	.byte	0x4
	.set L$set$609,LCFI316-LCFI315
	.long L$set$609
	.byte	0xde
	.byte	0xdd
	.byte	0xe
	.uleb128 0
	.align	3
LEFDE291:
LSFDE293:
	.set L$set$610,LEFDE293-LASFDE293
	.long L$set$610
LASFDE293:
	.long	LASFDE293-EH_frame1
	.quad	LFB13759-.
	.set L$set$611,LFE13759-LFB13759
	.quad L$set$611
	.uleb128 0x8
	.quad	0
	.byte	0x4
	.set L$set$612,LCFI317-LFB13759
	.long L$set$612
	.byte	0xe
	.uleb128 0x10
	.byte	0x9d
	.uleb128 0x2
	.byte	0x9e
	.uleb128 0x1
	.byte	0x4
	.set L$set$613,LCFI318-LCFI317
	.long L$set$613
	.byte	0xde
	.byte	0xdd
	.byte	0xe
	.uleb128 0
	.align	3
LEFDE293:
	.private_extern ___dso_handle
	.ident	"GCC: (Homebrew GCC 11.3.0_2) 11.3.0"
	.mod_init_func
_Mod.init:
	.align	3
	.xword	__GLOBAL__sub_I_solution.cpp
	.subsections_via_symbols
